(dp1
S'i2r'
p2
(dp3
I0
S'/location/statistical_region/rent50_2./measurement_unit/dated_money_value/currency'
p4
sI1
S'/tv/tv_series_episode/guest_stars./tv/tv_guest_role/actor'
p5
sI2
S'/music/performance_role/track_performances./music/track_contribution/contributor'
p6
sI3
S'/medicine/disease/prevention_factors'
p7
sI4
S'/organization/organization_member/member_of./organization/organization_membership/organization'
p8
sI5
S'/sports/sports_team/roster./soccer/football_roster_position/player'
p9
sI6
S'/business/company_type/companies_of_this_type'
p10
sI7
S'/base/popstra/religion/membership./base/popstra/religion_choice/member'
p11
sI8
S'/education/field_of_study/students_majoring./education/education/degree'
p12
sI9
S'/education/educational_institution/students_graduates./education/education/student'
p13
sI10
S'/government/politician/government_positions_held./government/government_position_held/jurisdiction_of_office'
p14
sI11
S'/base/schemastaging/tv_character_extra/regular_dubbing_performances./base/schemastaging/tv_star_dubbing_performance/program'
p15
sI12
S'/computer/programming_language/influenced_by'
p16
sI13
S'/base/folklore/mythology/mythical_creatures'
p17
sI14
S'/base/schemastaging/organization_extra/phone_number./base/schemastaging/phone_open_times/time_zone'
p18
sI15
S'/cvg/game_character/games./cvg/game_performance/game'
p19
sI16
S'/education/field_of_study/students_majoring./education/education/minor'
p20
sI17
S'/sports/sports_team/roster./american_football/football_historical_roster_position/player'
p21
sI18
S'/base/popstra/celebrity/endorsements./base/popstra/paid_support/company'
p22
sI19
S'/people/cause_of_death/includes_causes_of_death'
p23
sI20
S'/base/onephylogeny/type_of_thing/includes'
p24
sI21
S'/sports/sports_team/roster./basketball/basketball_roster_position/player'
p25
sI22
S'/film/film/runtime./film/film_cut/type_of_film_cut'
p26
sI23
S'/astronomy/star_system/planetary_system'
p27
sI24
S'/film/actor/dubbing_performances./film/dubbing_performance/language'
p28
sI25
S'/base/popstra/organization/supporter./base/popstra/support/supporter'
p29
sI26
S'/media_common/dedicatee/dedications./media_common/dedication/dedicated_by'
p30
sI27
S'/sports/pro_athlete/teams./american_football/football_historical_roster_position/team'
p31
sI28
S'/education/field_of_study/students_majoring./education/education/major_field_of_study'
p32
sI29
S'/biology/animal_breed/place_of_origin'
p33
sI30
S'/film/film/starring./film/performance/special_performance_type'
p34
sI31
S'/media_common/media_genre/child_genres'
p35
sI32
S'/base/popstra/celebrity/shops_at./base/popstra/shopping_choice/company'
p36
sI33
S'/finance/currency/countries_used'
p37
sI34
S'/location/capital_of_administrative_division/capital_of./location/administrative_division_capital_relationship/administrative_division'
p38
sI35
S'/base/x2010fifaworldcupsouthafrica/world_cup_participant/world_cup_team./base/x2010fifaworldcupsouthafrica/current_world_cup_squad/position'
p39
sI36
S'/tv/special_tv_performance_type/starring_performances./tv/regular_tv_appearance/character'
p40
sI37
S'/american_football/football_player/former_teams./american_football/football_historical_roster_position/position_s'
p41
sI38
S'/people/marriage_union_type/unions_of_this_type./people/marriage/spouse'
p42
sI39
S'/organization/organization_sector/organizations_in_this_sector'
p43
sI40
S'/baseball/baseball_team/team_stats./baseball/baseball_team_stats/season'
p44
sI41
S'/award/award_category/disciplines_or_subjects'
p45
sI42
S'/base/yalebase/secret_society_member/belonged_to./base/yalebase/secret_society_membership/society'
p46
sI43
S'/government/governmental_body/body_this_is_a_component_of'
p47
sI44
S'/business/employer/employees./business/employment_tenure/person'
p48
sI45
S'/user/jg/default_domain/olympic_games/sports'
p49
sI46
S'/medicine/disease/includes_diseases'
p50
sI47
S'/organization/membership_organization/members./organization/organization_membership/member'
p51
sI48
S'/award/award_category/long_lists./award/long_list_nomination/nominee'
p52
sI49
S'/book/school_or_movement/associated_authors'
p53
sI50
S'/people/person/nationality'
p54
sI51
S'/olympics/olympic_participating_country/medals_won./olympics/olympic_medal_honor/medal'
p55
sI52
S'/business/business_operation/revenue./measurement_unit/dated_money_value/currency'
p56
sI53
S'/location/statistical_region/rent50_3./measurement_unit/dated_money_value/currency'
p57
sI54
S'/cvg/computer_videogame/prequel'
p58
sI55
S'/music/genre/parent_genre'
p59
sI56
S'/location/country/languages_spoken'
p60
sI57
S'/military/rank/used_by_services./military/military_service/military_person'
p61
sI58
S'/film/special_film_performance_type/film_performance_type./film/performance/actor'
p62
sI59
S'/medicine/infectious_disease/infectious_agent_type'
p63
sI60
S'/base/thoroughbredracing/thoroughbred_racehorse_sex/horses_of_this_sex'
p64
sI61
S'/american_football/football_team/current_roster./sports/sports_team_roster/position'
p65
sI62
S'/tv/tv_genre/programs'
p66
sI63
S'/music/group_member/membership./music/group_membership/group'
p67
sI64
S'/film/film_genre/films_in_this_genre'
p68
sI65
S'/people/family/country'
p69
sI66
S'/fictional_universe/fictional_universe/characters'
p70
sI67
S'/business/consumer_product/company./business/company_product_relationship/company'
p71
sI68
S'/sports/sports_position/players./american_football/football_historical_roster_position/team'
p72
sI69
S'/film/film/film_art_direction_by'
p73
sI70
S'/sports/sports_team/sport'
p74
sI71
S'/base/locations/countries/continent'
p75
sI72
S'/sports/sport/related_equipment'
p76
sI73
S'/music/artist/label'
p77
sI74
S'/american_football/football_team/current_roster./american_football/football_roster_position/player'
p78
sI75
S'/people/cause_of_death/people'
p79
sI76
S'/tv/tv_network/areas_served'
p80
sI77
S'/base/aareas/schema/administrative_area/administrative_parent'
p81
sI78
S'/book/book_subject/works'
p82
sI79
S'/base/infrastructure/power_station/fuel_type'
p83
sI80
S'/sports/sports_official/sport'
p84
sI81
S'/government/form_of_government/countries'
p85
sI82
S'/soccer/football_position/players'
p86
sI83
S'/location/statistical_region/population./measurement_unit/dated_integer/source'
p87
sI84
S'/olympics/olympic_participating_country/olympics_participated_in'
p88
sI85
S'/common/annotation_category/annotations./common/webpage/topic'
p89
sI86
S'/computer/software/languages_used'
p90
sI87
S'/food/dietary_restriction/incompatible_ingredients'
p91
sI88
S'/fictional_universe/character_occupation/characters_with_this_occupation'
p92
sI89
S'/film/film_crewmember/films_crewed./film/film_crew_gig/film'
p93
sI90
S'/cvg/gameplay_mode/games_with_this_mode'
p94
sI91
S'/base/argumentmaps/morally_disputed_activity/instance_of_abstract_moral_dispute'
p95
sI92
S'/olympics/olympic_games/medals_awarded./olympics/olympic_medal_honor/medalist'
p96
sI93
S'/music/genre/artists'
p97
sI94
S'/ice_hockey/hockey_player/current_team./ice_hockey/hockey_roster_position/team'
p98
sI95
S'/location/country/first_level_divisions'
p99
sI96
S'/broadcast/artist/content'
p100
sI97
S'/government/political_party/politicians_in_this_party./government/political_party_tenure/politician'
p101
sI98
S'/basketball/basketball_team/roster./basketball/basketball_roster_position/player'
p102
sI99
S'/american_football/football_coach_position/coaches_holding_this_position./american_football/football_historical_coach_position/coach'
p103
sI100
S'/book/newspaper/headquarters./location/mailing_address/state_province_region'
p104
sI101
S'/medicine/medical_treatment/used_to_treat'
p105
sI102
S'/people/person/education./education/education/institution'
p106
sI103
S'/sports/sports_position/players./soccer/football_roster_position/player'
p107
sI104
S'/business/business_operation/cash./measurement_unit/dated_money_value/currency'
p108
sI105
S'/royalty/noble_person/titles./royalty/noble_title_tenure/noble_title'
p109
sI106
S'/base/newsevents/news_reported_event/news_report_s./base/newsevents/news_report/news_reporting_organisation'
p110
sI107
S'/tv/tv_series_episode/producers./tv/tv_producer_episode_credit/producer'
p111
sI108
S'/comic_books/comic_book_series/created_by'
p112
sI109
S'/base/patronage/patron/related_client./base/patronage/patron_client_relationship/client'
p113
sI110
S'/architecture/structure/construction_cost./measurement_unit/money_value/currency'
p114
sI111
S'/media_common/dedicator/dedications./media_common/dedication/dedicated_to'
p115
sI112
S'/broadcast/radio_station/owner'
p116
sI113
S'/soccer/football_player/current_team./sports/sports_team_roster/team'
p117
sI114
S'/military/military_conflict/commanders./military/military_command/military_combatant'
p118
sI115
S'/people/deceased_person/place_of_burial'
p119
sI116
S'/sports/pro_athlete/teams./american_football/football_roster_position/team'
p120
sI117
S'/fictional_universe/fictional_character_creator/fictional_characters_created'
p121
sI118
S'/tv/special_tv_performance_type/starring_performances./tv/regular_tv_appearance/actor'
p122
sI119
S'/music/artist/supporting_artists'
p123
sI120
S'/transportation/bridge/locale'
p124
sI121
S'/music/artist/contribution./music/recording_contribution/performance_role'
p125
sI122
S'/medicine/drug/legal_status'
p126
sI123
S'/tv/tv_actor/starring_roles./tv/regular_tv_appearance/character'
p127
sI124
S'/film/film/personal_appearances./film/personal_film_appearance/person'
p128
sI125
S'/base/contractbridge/bridge_player/second_place_finish./base/contractbridge/bridge_tournament_standings/second_place'
p129
sI126
S'/award/award/presented_by'
p130
sI127
S'/location/neighborhood/neighborhood_of'
p131
sI128
S'/base/localfood/seasonal_month/produce_available./base/localfood/produce_availability/seasonal_months'
p132
sI129
S'/travel/transport_operator/travel_destinations_served./travel/transportation/mode_of_transportation'
p133
sI130
S'/american_football/football_player/games./american_football/player_game_statistics/season'
p134
sI131
S'/food/diet_follower/follows_diet'
p135
sI132
S'/travel/travel_destination/how_to_get_here./travel/transportation/transport_operator'
p136
sI133
S'/education/educational_institution_campus/educational_institution'
p137
sI134
S'/music/conductor/groups./music/conducting_tenure/ensemble'
p138
sI135
S'/ice_hockey/hockey_player/current_team./ice_hockey/hockey_roster_position/position'
p139
sI136
S'/award/award_winner/awards_won./award/award_honor/award_winner'
p140
sI137
S'/medicine/disease/risk_factors'
p141
sI138
S'/government/political_district/representatives./government/government_position_held/basic_title'
p142
sI139
S'/american_football/football_team/historical_coaching_staff./american_football/football_historical_coach_position/position'
p143
sI140
S'/people/ethnicity/geographic_distribution'
p144
sI141
S'/government/legislative_session/legislature'
p145
sI142
S'/medicine/disease/treatments'
p146
sI143
S'/people/person/spouse_s./people/marriage/type_of_union'
p147
sI144
S'/biology/organism/organism_type'
p148
sI145
S'/architecture/museum/address./location/mailing_address/citytown'
p149
sI146
S'/biology/organism_classification/rank'
p150
sI147
S'/geography/lake_type/lakes_of_this_type'
p151
sI148
S'/olympics/olympic_athlete/medals_won./olympics/olympic_medal_honor/olympics'
p152
sI149
S'/location/location/contains'
p153
sI150
S'/tv/tv_program/regular_cast./tv/regular_tv_appearance/seasons'
p154
sI151
S'/tv/tv_program/genre'
p155
sI152
S'/base/endorsements/endorsing_newspaper/endorsements./base/endorsements/newspaper_endorsement/election'
p156
sI153
S'/sports/sports_position/players./sports/sports_team_roster/position'
p157
sI154
S'/film/producer/film'
p158
sI155
S'/aviation/airport/hub_for'
p159
sI156
S'/sports/sports_league/teams./sports/sports_league_participation/team'
p160
sI157
S'/sports/sports_position/players./baseball/baseball_roster_position/team'
p161
sI158
S'/military/rank/used_by_services./military/military_service/military_force'
p162
sI159
S'/fictional_universe/fictional_character/gender'
p163
sI160
S'/education/school/highest_grade_taught'
p164
sI161
S'/education/educational_degree/people_with_this_degree./education/education/minor'
p165
sI162
S'/baseball/baseball_team/league'
p166
sI163
S'/base/x2010fifaworldcupsouthafrica/world_cup_participant/world_cup_team./base/x2010fifaworldcupsouthafrica/current_world_cup_squad/national_team'
p167
sI164
S'/government/government_office_category/officeholders./government/government_position_held/appointed_by'
p168
sI165
S'/military/military_conflict/casualties./military/casualties/combatant'
p169
sI166
S'/computer/software/software_genre'
p170
sI167
S'/military/armed_force/personnel./military/military_service/rank'
p171
sI168
S'/olympics/olympic_sport/athletes./olympics/olympic_athlete_affiliation/athlete'
p172
sI169
S'/basketball/basketball_team/roster./sports/sports_team_roster/position'
p173
sI170
S'/base/disaster2/tactic/attacks_of_this_form./base/disaster2/attack_process/attack_event'
p174
sI171
S'/people/person/place_of_birth'
p175
sI172
S'/cvg/game_series/games_in_series'
p176
sI173
S'/spaceflight/space_agency/astronauts'
p177
sI174
S'/time/event/includes_event'
p178
sI175
S'/base/aareas/schema/administrative_area/capital'
p179
sI176
S'/baseball/baseball_player/former_teams./baseball/baseball_historical_roster_position/team'
p180
sI177
S'/medicine/icd_9_cm_classification/parent_classification'
p181
sI178
S'/people/cause_of_death/parent_cause_of_death'
p182
sI179
S'/education/university/domestic_tuition./measurement_unit/dated_money_value/currency'
p183
sI180
S'/education/field_of_study/students_majoring./education/education/institution'
p184
sI181
S'/biology/organism_classification/organisms_of_this_type'
p185
sI182
S'/people/profession/specialization_of'
p186
sI183
S'/music/musical_group/member./music/group_membership/role'
p187
sI184
S'/government/government_office_or_title/governmental_body_if_any'
p188
sI185
S'/government/government_office_category/officeholders./government/government_position_held/legislative_sessions'
p189
sI186
S'/sports/sports_team/roster./soccer/football_roster_position/position'
p190
sI187
S'/music/instrument/instrumentalists'
p191
sI188
S'/government/political_district/representatives./government/government_position_held/jurisdiction_of_office'
p192
sI189
S'/astronomy/orbital_relationship/orbits'
p193
sI190
S'/sports/sports_team/colors'
p194
sI191
S'/organization/role/leaders./organization/leadership/person'
p195
sI192
S'/fictional_universe/fictional_setting/fictional_characters_born_here'
p196
sI193
S'/soccer/football_player/current_team./soccer/football_roster_position/team'
p197
sI194
S'/film/production_company/films'
p198
sI195
S'/sports/sports_award_winner/awards./sports/sports_award/award'
p199
sI196
S'/book/author/school_or_movement'
p200
sI197
S'/ice_hockey/hockey_player/current_team./sports/sports_team_roster/team'
p201
sI198
S'/film/film_casting_director/films_casting_directed'
p202
sI199
S'/influence/influence_node/influenced'
p203
sI200
S'/geography/river/basin_countries'
p204
sI201
S'/film/person_or_entity_appearing_in_film/films./film/personal_film_appearance/film'
p205
sI202
S'/royalty/order_of_chivalry/recipients./royalty/chivalric_order_membership/recipient'
p206
sI203
S'/base/schemastaging/organization_extra/phone_number./base/schemastaging/phone_sandbox/contact_category'
p207
sI204
S'/biology/organism/sex'
p208
sI205
S'/basketball/basketball_team/roster./basketball/basketball_roster_position/position'
p209
sI206
S'/film/film/dubbing_performances./film/dubbing_performance/actor'
p210
sI207
S'/user/szaijan/fantasy_football/player/nfl_team'
p211
sI208
S'/tv/tv_program/episodes'
p212
sI209
S'/base/contractbridge/bridge_player/second_place_finish./base/contractbridge/bridge_tournament_standings/first_place'
p213
sI210
S'/ice_hockey/hockey_player/former_team_s./sports/sports_team_roster/team'
p214
sI211
S'/organization/organization/board_members./organization/organization_board_membership/role'
p215
sI212
S'/american_football/football_team/current_roster./american_football/football_roster_position/position'
p216
sI213
S'/base/contractbridge/bridge_player/first_place_finish./base/contractbridge/bridge_tournament_standings/second_place'
p217
sI214
S'/film/film_job/films_with_this_crew_job./film/film_crew_gig/crewmember'
p218
sI215
S'/film/film/featured_film_locations'
p219
sI216
S'/time/recurring_event/instances'
p220
sI217
S'/fictional_universe/fictional_character/powers_or_abilities'
p221
sI218
S'/base/crime/crime_victim/crime'
p222
sI219
S'/award/award_winning_work/awards_won./award/award_honor/award'
p223
sI220
S'/sports/sports_league_draft/picks./sports/sports_league_draft_pick/team'
p224
sI221
S'/government/political_appointer/appointees./government/government_position_held/jurisdiction_of_office'
p225
sI222
S'/cvg/computer_videogame/characters./cvg/game_performance/voice_actor'
p226
sI223
S'/olympics/olympic_games/athletes./olympics/olympic_athlete_affiliation/sport'
p227
sI224
S'/internet/website_owner/websites_owned_new./internet/website_ownership/website'
p228
sI225
S'/olympics/olympic_athlete/country./olympics/olympic_athlete_affiliation/olympics'
p229
sI226
S'/film/film/release_date_s./film/film_regional_release_date/film_regional_debut_venue'
p230
sI227
S'/base/biblioness/bibs_location/country'
p231
sI228
S'/organization/organization/spun_off_from./organization/organization_spin_off/parent_company'
p232
sI229
S'/government/government_office_or_title/category'
p233
sI230
S'/biology/animal_breed/registered_with./biology/breed_registration/registry'
p234
sI231
S'/cvg/cvg_publisher/games_published'
p235
sI232
S'/government/legislative_session/members./government/government_position_held/basic_title'
p236
sI233
S'/base/wrestling/solo_wrestler_or_team/members'
p237
sI234
S'/government/government_office_or_title/office_holders./government/government_position_held/appointed_by'
p238
sI235
S'/tv/tv_actor/starring_roles./tv/regular_tv_appearance/series'
p239
sI236
S'/education/educational_institution/students_graduates./education/education/major_field_of_study'
p240
sI237
S'/user/alexander/misc/murdered_person/place_murdered'
p241
sI238
S'/film/film_crewmember/films_crewed./film/film_crew_gig/film_crew_role'
p242
sI239
S'/base/saints/saint/venerated_in'
p243
sI240
S'/film/film/gross_revenue./measurement_unit/dated_money_value/currency'
p244
sI241
S'/sports/sports_position/players./soccer/football_roster_position/team'
p245
sI242
S'/film/film_character/portrayed_in_films./film/performance/special_performance_type'
p246
sI243
S'/religion/religious_text/religious_text_of'
p247
sI244
S'/book/newspaper/owner'
p248
sI245
S'/tv/special_tv_performance_type/episode_performances./tv/tv_guest_role/actor'
p249
sI246
S'/base/americancomedy/celebrity_impressionist/celebrities_impersonated'
p250
sI247
S'/sports/sports_team/roster./ice_hockey/hockey_previous_roster_position/player'
p251
sI248
S'/medicine/symptom/symptom_of'
p252
sI249
S'/organization/organization/involved_in_merger./organization/organization_merger/became_organization'
p253
sI250
S'/people/deceased_person/cause_of_death'
p254
sI251
S'/baseball/baseball_player/position_s'
p255
sI252
S'/base/popstra/company/shopping_choice./base/popstra/shopping_choice/shopper'
p256
sI253
S'/base/popstra/restaurant/restaurant_choice./base/popstra/restaurant_choice/diner'
p257
sI254
S'/baseball/baseball_team/current_roster./sports/sports_team_roster/position'
p258
sI255
S'/location/country/administrative_divisions'
p259
sI256
S'/sports/sports_position/players./ice_hockey/hockey_roster_position/team'
p260
sI257
S'/location/country/second_level_divisions'
p261
sI258
S'/sports/professional_sports_team/draft_picks./sports/sports_league_draft_pick/player'
p262
sI259
S'/ice_hockey/hockey_player/former_team_s./ice_hockey/hockey_previous_roster_position/team'
p263
sI260
S'/fictional_universe/fictional_character/ethnicity'
p264
sI261
S'/sports/sports_team/location'
p265
sI262
S'/base/onephylogeny/type_of_thing/things_of_this_type'
p266
sI263
S'/base/usnationalparks/us_national_park/state'
p267
sI264
S'/film/film/distributors./film/film_film_distributor_relationship/distributor'
p268
sI265
S'/religion/religion/notable_figures'
p269
sI266
S'/influence/influence_node/peers./influence/peer_relationship/peers'
p270
sI267
S'/people/person/places_lived./people/place_lived/location'
p271
sI268
S'/sports/drafted_athlete/drafted./sports/sports_league_draft_pick/school'
p272
sI269
S'/soccer/football_player/current_team./sports/sports_team_roster/position'
p273
sI270
S'/fictional_universe/character_rank/characters_of_this_rank'
p274
sI271
S'/medicine/risk_factor/diseases'
p275
sI272
S'/film/film/film_format'
p276
sI273
S'/medicine/drug/active_moieties'
p277
sI274
S'/film/film/music'
p278
sI275
S'/martial_arts/martial_artist/martial_art'
p279
sI276
S'/base/fashionmodels/fashion_model/hair_color'
p280
sI277
S'/base/schemastaging/tv_program_extra/regular_dubbing_performances./base/schemastaging/tv_star_dubbing_performance/language'
p281
sI278
S'/american_football/football_team/historical_roster./american_football/football_historical_roster_position/player'
p282
sI279
S'/people/person/spouse_s./people/marriage/location_of_ceremony'
p283
sI280
S'/visual_art/visual_artist/associated_periods_or_movements'
p284
sI281
S'/architecture/building_function/buildings'
p285
sI282
S'/olympics/olympic_participating_country/athletes./olympics/olympic_athlete_affiliation/sport'
p286
sI283
S'/biology/animal_breed/registered_with./biology/breed_registration/breed_group'
p287
sI284
S'/location/statistical_region/rent50_4./measurement_unit/dated_money_value/currency'
p288
sI285
S'/government/politician/government_positions_held./government/government_position_held/governmental_body'
p289
sI286
S'/music/group_member/vocal_range'
p290
sI287
S'/education/educational_institution/students_graduates./education/education/degree'
p291
sI288
S'/astronomy/celestial_object/category'
p292
sI289
S'/government/legislative_session/members./government/government_position_held/jurisdiction_of_office'
p293
sI290
S'/people/person/religion'
p294
sI291
S'/sports/sports_championship_event/runner_up'
p295
sI292
S'/basketball/basketball_player/team./basketball/basketball_roster_position/position'
p296
sI293
S'/user/coco/science/concepts_theories/parent_concept'
p297
sI294
S'/sports/tournament_event_competitor/events_competed_in./sports/competitor_competition_relationship/country'
p298
sI295
S'/film/cinematographer/film'
p299
sI296
S'/base/famouspets/pet_owner/pets_owned./base/famouspets/pet_ownership/owner'
p300
sI297
S'/people/person/employment_history./business/employment_tenure/title'
p301
sI298
S'/film/film_series/films_in_series'
p302
sI299
S'/tv/tv_program_guest/appeared_on./tv/tv_guest_personal_appearance/episode'
p303
sI300
S'/location/statistical_region/gni_in_ppp_dollars./measurement_unit/dated_money_value/currency'
p304
sI301
S'/base/popstra/celebrity/breakup./base/popstra/breakup/participant'
p305
sI302
S'/location/location/partially_contains'
p306
sI303
S'/medicine/drug_ingredient/more_general_ingredient'
p307
sI304
S'/base/popstra/celebrity/vacations_in./base/popstra/vacation_choice/location'
p308
sI305
S'/olympics/olympic_participating_country/athletes./olympics/olympic_athlete_affiliation/athlete'
p309
sI306
S'/aviation/airline/airports_served./aviation/airline_airport_presence/cities_served'
p310
sI307
S'/sports/sports_position/players./american_football/football_roster_position/team'
p311
sI308
S'/olympics/olympic_sport/athletes./olympics/olympic_athlete_affiliation/country'
p312
sI309
S'/location/symbol_of_administrative_division/official_symbol_of./location/location_symbol_relationship/administrative_division'
p313
sI310
S'/business/business_operation/assets./measurement_unit/dated_money_value/currency'
p314
sI311
S'/tv/tv_program/regular_cast./tv/regular_tv_appearance/actor'
p315
sI312
S'/book/magazine_genre/magazines_in_this_genre'
p316
sI313
S'/medicine/condition_prevention_factors/conditions_this_may_prevent'
p317
sI314
S'/government/legislative_session/members./government/government_position_held/office_holder'
p318
sI315
S'/base/schemastaging/person_extra/net_worth./measurement_unit/dated_money_value/currency'
p319
sI316
S'/film/film_art_director/films_art_directed'
p320
sI317
S'/base/schemastaging/tv_character_extra/regular_dubbing_performances./base/schemastaging/tv_star_dubbing_performance/language'
p321
sI318
S'/business/employer/employees./business/employment_tenure/title'
p322
sI319
S'/military/armed_force/personnel./military/military_service/military_person'
p323
sI320
S'/baseball/baseball_player/batting_stats./baseball/batting_statistics/season'
p324
sI321
S'/music/artist/origin'
p325
sI322
S'/education/school_category/schools_of_this_kind'
p326
sI323
S'/music/artist/track_contributions./music/track_contribution/role'
p327
sI324
S'/base/localfood/food_producing_region/seasonal_availability./base/localfood/produce_availability/produce'
p328
sI325
S'/protected_sites/listed_site/designation_as_natural_or_cultural_site./protected_sites/natural_or_cultural_site_listing/designation'
p329
sI326
S'/military/military_conflict/combatants./military/military_combatant_group/combatants'
p330
sI327
S'/tv/tv_producer_type/tv_producers_of_this_type./tv/tv_producer_term/producer'
p331
sI328
S'/religion/religion/places_of_worship'
p332
sI329
S'/film/film/production_companies'
p333
sI330
S'/base/saturdaynightlive/snl_cast_member/seasons./base/saturdaynightlive/snl_season_tenure/cast_members'
p334
sI331
S'/sports/sports_award_type/winners./sports/sports_award/award_winner'
p335
sI332
S'/location/location/nearby_airports'
p336
sI333
S'/location/place_with_neighborhoods/neighborhoods'
p337
sI334
S'/education/university/fraternities_and_sororities'
p338
sI335
S'/location/administrative_division/second_level_division_of'
p339
sI336
S'/base/contractbridge/bridge_player/first_place_finish./base/contractbridge/bridge_tournament_standings/tournament'
p340
sI337
S'/education/educational_institution/students_graduates./education/education/specialization'
p341
sI338
S'/location/statistical_region/rent50_1./measurement_unit/dated_money_value/currency'
p342
sI339
S'/fictional_universe/fictional_setting/works_set_here'
p343
sI340
S'/government/politician/government_positions_held./government/government_position_held/district_represented'
p344
sI341
S'/government/governmental_body/members./government/government_position_held/appointed_by'
p345
sI342
S'/user/tfmorris/default_domain/signatory/documents_signed'
p346
sI343
S'/tv/tv_program/spin_offs'
p347
sI344
S'/location/country/form_of_government'
p348
sI345
S'/film/special_film_performance_type/film_performance_type./film/performance/film'
p349
sI346
S'/film/music_contributor/film'
p350
sI347
S'/common/webpage/topic'
p351
sI348
S'/baseball/baseball_position/players'
p352
sI349
S'/education/university/local_tuition./measurement_unit/dated_money_value/currency'
p353
sI350
S'/education/educational_institution/sports_teams'
p354
sI351
S'/food/dish/cuisine'
p355
sI352
S'/architecture/architect/structures_designed'
p356
sI353
S'/protected_sites/site_listing_category/listed_sites./protected_sites/natural_or_cultural_site_listing/listed_site'
p357
sI354
S'/basketball/basketball_player/player_statistics./basketball/basketball_player_stats/team'
p358
sI355
S'/business/brand/owner_s./business/company_brand_relationship/company'
p359
sI356
S'/fictional_universe/fictional_character/appears_in_these_fictional_universes'
p360
sI357
S'/aviation/airline/focus_cities'
p361
sI358
S'/transportation/road/major_cities'
p362
sI359
S'/base/events/type_of_festival/recurring_festivals_of_this_type'
p363
sI360
S'/sports/sports_team_location/teams'
p364
sI361
S'/american_football/football_team/current_roster./sports/sports_team_roster/player'
p365
sI362
S'/education/educational_institution/mascot'
p366
sI363
S'/film/film/film_casting_director'
p367
sI364
S'/olympics/olympic_sport/olympic_games_contested'
p368
sI365
S'/language/human_language/countries_spoken_in'
p369
sI366
S'/baseball/baseball_league/teams'
p370
sI367
S'/business/asset/owners./business/asset_ownership/owner'
p371
sI368
S'/geography/lake/cities'
p372
sI369
S'/soccer/football_team/current_roster./sports/sports_team_roster/position'
p373
sI370
S'/base/aareas/schema/administrative_area/administrative_children'
p374
sI371
S'/award/award_ceremony/awards_presented./award/award_honor/award'
p375
sI372
S'/location/statistical_region/gdp_real./measurement_unit/adjusted_money_value/adjustment_currency'
p376
sI373
S'/visual_art/visual_art_form/artists'
p377
sI374
S'/soccer/football_team/current_roster./soccer/football_roster_position/position'
p378
sI375
S'/organization/organization/parent./organization/organization_relationship/parent'
p379
sI376
S'/base/thoroughbredracing/thoroughbred_racehorse_origin/horses_from_this_location'
p380
sI377
S'/olympics/olympic_medal/medal_winners./olympics/olympic_medal_honor/country'
p381
sI378
S'/ice_hockey/hockey_team/historical_roster./ice_hockey/hockey_previous_roster_position/player'
p382
sI379
S'/comic_books/comic_book_creator/series_created'
p383
sI380
S'/tv/tv_program/spun_off_from'
p384
sI381
S'/business/business_operation/industry'
p385
sI382
S'/education/educational_institution/parent_institution'
p386
sI383
S'/film/film_set_designer/film_sets_designed'
p387
sI384
S'/american_football/football_player/former_teams./sports/sports_team_roster/position'
p388
sI385
S'/tv/non_character_role/tv_regular_personal_appearances./tv/tv_regular_personal_appearance/program'
p389
sI386
S'/education/school/lowest_grade_taught'
p390
sI387
S'/film/film_company/films./film/film_film_company_relationship/film'
p391
sI388
S'/base/americancomedy/comedian/comedy_genres'
p392
sI389
S'/government/politician/government_positions_held./government/government_position_held/legislative_sessions'
p393
sI390
S'/medicine/disease/causes'
p394
sI391
S'/film/special_film_performance_type/film_performance_type./film/performance/character'
p395
sI392
S'/basketball/basketball_team/roster./sports/sports_team_roster/player'
p396
sI393
S'/government/governmental_body/members./government/government_position_held/district_represented'
p397
sI394
S'/tv/tv_character/appeared_in_tv_program./tv/regular_tv_appearance/special_performance_type'
p398
sI395
S'/religion/deity/deity_of'
p399
sI396
S'/film/film/prequel'
p400
sI397
S'/computer/software/license'
p401
sI398
S'/tv/tv_subject/tv_programs'
p402
sI399
S'/award/award_presenting_organization/awards_presented'
p403
sI400
S'/tv/tv_actor/starring_roles./tv/regular_tv_appearance/seasons'
p404
sI401
S'/book/newspaper/circulation_areas'
p405
sI402
S'/film/film/written_by'
p406
sI403
S'/tv/tv_actor/guest_roles./tv/tv_guest_role/character'
p407
sI404
S'/user/robert/us_congress/house_committee/current_members'
p408
sI405
S'/architecture/museum/type_of_museum'
p409
sI406
S'/location/location/containedby'
p410
sI407
S'/organization/role/governors./organization/organization_board_membership/organization'
p411
sI408
S'/base/popstra/celebrity/wears./base/popstra/fashion_choice/designer'
p412
sI409
S'/location/location/time_zones'
p413
sI410
S'/computer/programming_language_designer/languages_designed'
p414
sI411
S'/broadcast/content/artist'
p415
sI412
S'/award/award_discipline/awards_in_this_discipline'
p416
sI413
S'/people/ethnicity/people'
p417
sI414
S'/base/schemastaging/tv_program_extra/regular_dubbing_performances./base/schemastaging/tv_star_dubbing_performance/actor'
p418
sI415
S'/location/country/official_language'
p419
sI416
S'/periodicals/newspaper_circulation_area/newspapers'
p420
sI417
S'/american_football/football_player/current_team./sports/sports_team_roster/team'
p421
sI418
S'/people/profession/specializations'
p422
sI419
S'/government/political_appointer/appointees./government/government_position_held/office_holder'
p423
sI420
S'/sports/sports_team/roster./american_football/football_roster_position/player'
p424
sI421
S'/film/film/subjects'
p425
sI422
S'/film/film_production_designer/films_production_designed'
p426
sI423
S'/base/thoroughbredracing/thoroughbred_racehorse/color'
p427
sI424
S'/tv/tv_producer/programs_produced./tv/tv_producer_term/producer_type'
p428
sI425
S'/celebrities/celebrity/celebrity_friends./celebrities/friendship/friend'
p429
sI426
S'/protected_sites/natural_or_cultural_site_designation/sites./protected_sites/natural_or_cultural_site_listing/listed_site'
p430
sI427
S'/people/person/parents'
p431
sI428
S'/biology/animal_breed/breed_of'
p432
sI429
S'/base/biblioness/bibs_location/state'
p433
sI430
S'/organization/organization/headquarters./location/mailing_address/country'
p434
sI431
S'/finance/currency/countries_formerly_used'
p435
sI432
S'/sports/sport/leagues'
p436
sI433
S'/american_football/football_team/historical_roster./american_football/football_historical_roster_position/position_s'
p437
sI434
S'/projects/project_role/projects./projects/project_participation/participant'
p438
sI435
S'/biology/organism_classification_rank/organism_classifications'
p439
sI436
S'/base/fight/crime_type/includes_crimes'
p440
sI437
S'/award/award_nominee/award_nominations./award/award_nomination/award'
p441
sI438
S'/education/academic/appointments_fellowships_etc./education/academic_post/institution'
p442
sI439
S'/tv/tv_writer/tv_programs./tv/tv_program_writer_relationship/tv_program'
p443
sI440
S'/sports/sports_position/players./basketball/basketball_roster_position/team'
p444
sI441
S'/government/governmental_body/members./government/government_position_held/office_holder'
p445
sI442
S'/sports/pro_athlete/teams./american_football/football_roster_position/position'
p446
sI443
S'/education/educational_degree/people_with_this_degree./education/education/student'
p447
sI444
S'/religion/religion/is_part_of'
p448
sI445
S'/cvg/game_voice_actor/computer_game_voice_performances./cvg/game_performance/character'
p449
sI446
S'/tv/tv_producer/programs_produced./tv/tv_producer_term/program'
p450
sI447
S'/base/twinnedtowns/twinned_town/twinned_with./base/twinnedtowns/town_twinning/twinned_towns'
p451
sI448
S'/base/parody/parodied_subject/parodies'
p452
sI449
S'/user/alexbl/honorary_title/honorary_title/titled_people./user/alexbl/honorary_title/honorary_title_holding/conferred_upon'
p453
sI450
S'/media_common/literary_genre/books_in_this_genre'
p454
sI451
S'/architecture/structure/address./location/mailing_address/citytown'
p455
sI452
S'/language/language_family/languages'
p456
sI453
S'/music/artist/genre'
p457
sI454
S'/music/performance_role/regular_performances./music/group_membership/group'
p458
sI455
S'/education/field_of_study/subdiscipline_of'
p459
sI456
S'/music/performance_role/track_performances./music/track_contribution/role'
p460
sI457
S'/broadcast/tv_station_owner/tv_stations'
p461
sI458
S'/location/it_province/capital'
p462
sI459
S'/business/industry/companies'
p463
sI460
S'/award/award_ceremony/awards_presented./award/award_honor/honored_for'
p464
sI461
S'/award/award_winning_work/awards_won./award/award_honor/honored_for'
p465
sI462
S'/metropolitan_transit/transit_system/area_served'
p466
sI463
S'/award/award_nominated_work/award_nominations./award/award_nomination/nominated_for'
p467
sI464
S'/fictional_universe/fictional_character/occupation'
p468
sI465
S'/base/schemastaging/athlete_extra/salary./base/schemastaging/athlete_salary/team'
p469
sI466
S'/education/educational_institution/campuses'
p470
sI467
S'/education/educational_institution/sexes_accepted./education/gender_enrollment/sex'
p471
sI468
S'/music/group_member/membership./music/group_membership/role'
p472
sI469
S'/location/us_county/hud_county_place'
p473
sI470
S'/award/award_category/winners./award/award_honor/ceremony'
p474
sI471
S'/sports/sports_championship_event/championship'
p475
sI472
S'/film/film/film_series'
p476
sI473
S'/location/hud_foreclosure_area/estimated_number_of_mortgages./measurement_unit/dated_integer/source'
p477
sI474
S'/aviation/airline/airports_served./aviation/airline_airport_presence/airport'
p478
sI475
S'/people/person/spouse_s./people/marriage/spouse'
p479
sI476
S'/film/film/distributors./film/film_film_distributor_relationship/region'
p480
sI477
S'/fictional_universe/person_in_fiction/representations_in_fiction'
p481
sI478
S'/base/locations/continents/countries_within'
p482
sI479
S'/people/person/education./education/education/major_field_of_study'
p483
sI480
S'/government/politician/government_positions_held./government/government_position_held/appointed_by'
p484
sI481
S'/american_football/football_player/former_teams./american_football/football_historical_roster_position/team'
p485
sI482
S'/music/artist/album'
p486
sI483
S'/common/topic/webpage./common/webpage/resource'
p487
sI484
S'/base/events/performer/performances./base/events/performance/performer'
p488
sI485
S'/aviation/aircraft_owner/aircraft_fleet_composition./aviation/aircraft_ownership_count/aircraft_model'
p489
sI486
S'/military/military_commander/military_commands./military/military_command/military_conflict'
p490
sI487
S'/soccer/football_player/position_s'
p491
sI488
S'/education/school/school_district'
p492
sI489
S'/venture_capital/venture_funded_company/venture_investors./venture_capital/venture_investment/investor'
p493
sI490
S'/base/argumentmaps/original_idea/innovator'
p494
sI491
S'/broadcast/tv_station/owner'
p495
sI492
S'/sports/sports_league/sport'
p496
sI493
S'/location/administrative_division/country'
p497
sI494
S'/award/recurring_competition/individual_competitions'
p498
sI495
S'/people/profession/people_with_this_profession'
p499
sI496
S'/fictional_universe/fictional_character/character_created_by'
p500
sI497
S'/people/person/sibling_s./people/sibling_relationship/sibling'
p501
sI498
S'/base/popstra/celebrity/lived_with./base/popstra/lived_with/participant'
p502
sI499
S'/location/hud_foreclosure_area/hhuniv./measurement_unit/dated_integer/source'
p503
sI500
S'/military/military_conflict/commanders./military/military_command/military_commander'
p504
sI501
S'/tv/tv_program/program_creator'
p505
sI502
S'/sports/sports_position/players./ice_hockey/hockey_roster_position/player'
p506
sI503
S'/food/dietary_restriction/compatible_ingredients'
p507
sI504
S'/tv/tv_program/regular_personal_appearances./tv/tv_regular_personal_appearance/appearance_type'
p508
sI505
S'/base/yalebase/secret_society/notable_members./base/yalebase/secret_society_membership/member'
p509
sI506
S'/user/tsegaran/computer/algorithm_family/algorithm'
p510
sI507
S'/architecture/structure/address./location/mailing_address/state_province_region'
p511
sI508
S'/religion/religious_practice/practice_of'
p512
sI509
S'/music/genre/albums'
p513
sI510
S'/medicine/type_of_infectious_agent/diseases'
p514
sI511
S'/government/governmental_jurisdiction/governing_officials./government/government_position_held/office_holder'
p515
sI512
S'/base/activism/activism_issue/activists'
p516
sI513
S'/government/political_district/representatives./government/government_position_held/office_holder'
p517
sI514
S'/music/performance_role/regular_performances./music/group_membership/role'
p518
sI515
S'/tennis/tennis_player/matches_lost./tennis/tennis_match/winner'
p519
sI516
S'/film/film/starring./film/performance/actor'
p520
sI517
S'/basketball/basketball_team/historical_roster./sports/sports_team_roster/player'
p521
sI518
S'/location/location/partially_containedby'
p522
sI519
S'/location/statistical_region/religions./location/religion_percentage/religion'
p523
sI520
S'/government/governmental_body/members./government/government_position_held/legislative_sessions'
p524
sI521
S'/architecture/building/building_function'
p525
sI522
S'/cvg/computer_videogame/cvg_genre'
p526
sI523
S'/business/board_member/leader_of./organization/leadership/role'
p527
sI524
S'/government/governmental_jurisdiction/governing_officials./government/government_position_held/office_position_or_title'
p528
sI525
S'/transportation/road/end2./transportation/road_starting_point/location'
p529
sI526
S'/military/military_person/service./military/military_service/military_force'
p530
sI527
S'/american_football/football_team/historical_roster./sports/sports_team_roster/position'
p531
sI528
S'/people/appointer/appointment_made./people/appointment/appointed_role'
p532
sI529
S'/olympics/olympic_athlete/medals_won./olympics/olympic_medal_honor/medal'
p533
sI530
S'/user/coco/science/concepts_theories/child_concept'
p534
sI531
S'/fictional_universe/fictional_character/romantically_involved_with./fictional_universe/romantic_involvement/partner'
p535
sI532
S'/military/military_combatant/military_conflicts./military/military_combatant_group/combatants'
p536
sI533
S'/base/popstra/business_location/customer./base/popstra/hangout/customer'
p537
sI534
S'/base/activism/activism_issue/activist_organizations'
p538
sI535
S'/base/contractbridge/bridge_player/second_place_finish./base/contractbridge/bridge_tournament_standings/tournament'
p539
sI536
S'/location/hud_foreclosure_area/total_90_day_vacant_residential_addresses./measurement_unit/dated_integer/source'
p540
sI537
S'/people/ethnicity/languages_spoken'
p541
sI538
S'/internet/website_category/sites'
p542
sI539
S'/people/appointer/appointment_made./people/appointment/appointee'
p543
sI540
S'/award/award_category/presenting_organization'
p544
sI541
S'/medicine/drug/drug_class'
p545
sI542
S'/government/politician/party./government/political_party_tenure/party'
p546
sI543
S'/american_football/football_player/games./american_football/player_game_statistics/team'
p547
sI544
S'/base/schemastaging/tv_actor_extra/regular_dubbing_performances./base/schemastaging/tv_star_dubbing_performance/character'
p548
sI545
S'/language/human_language/region'
p549
sI546
S'/base/schemastaging/fish/found_in'
p550
sI547
S'/people/person/profession'
p551
sI548
S'/computer/software/developer'
p552
sI549
S'/user/alexander/philosophy/philosopher/interests'
p553
sI550
S'/time/event/locations'
p554
sI551
S'/government/government_office_category/officeholders./government/government_position_held/office_position_or_title'
p555
sI552
S'/government/governmental_body/offices_positions'
p556
sI553
S'/computer/operating_system/parent_os'
p557
sI554
S'/american_football/football_team/historical_roster./sports/sports_team_roster/player'
p558
sI555
S'/film/film_story_contributor/film_story_credits'
p559
sI556
S'/interests/collection_category/parent_category'
p560
sI557
S'/projects/project_participant/projects./projects/project_participation/role'
p561
sI558
S'/visual_art/artwork/art_subject'
p562
sI559
S'/film/film/dubbing_performances./film/dubbing_performance/language'
p563
sI560
S'/business/consumer_company/brands./business/company_brand_relationship/brand'
p564
sI561
S'/exhibitions/exhibition_venue/exhibitions_at_this_venue./exhibitions/exhibition_run/sponsor'
p565
sI562
S'/location/hud_foreclosure_area/estimated_number_foreclosures./measurement_unit/dated_integer/source'
p566
sI563
S'/film/film_format/film_format'
p567
sI564
S'/government/political_district/representatives./government/government_position_held/legislative_sessions'
p568
sI565
S'/broadcast/content/genre'
p569
sI566
S'/sports/sports_team_owner/teams_owned'
p570
sI567
S'/education/fraternity_sorority/colleges_and_universities'
p571
sI568
S'/time/time_zone/locations_in_this_time_zone'
p572
sI569
S'/base/onephylogeny/type_of_thing/included_in'
p573
sI570
S'/people/deceased_person/place_of_death'
p574
sI571
S'/award/award_nominee/award_nominations./award/award_nomination/nominated_for'
p575
sI572
S'/soccer/football_league/teams./soccer/football_league_participation/team'
p576
sI573
S'/transportation/road/end1./transportation/road_starting_point/location'
p577
sI574
S'/base/infrastructure/power_plant_type/power_station'
p578
sI575
S'/government/governmental_body/sessions'
p579
sI576
S'/music/group_member/instruments_played'
p580
sI577
S'/broadcast/broadcast/area_served'
p581
sI578
S'/film/film_featured_song/performed_by'
p582
sI579
S'/base/popstra/celebrity/dated./base/popstra/dated/participant'
p583
sI580
S'/base/schemastaging/athlete_extra/salary./base/schemastaging/athlete_salary/currency'
p584
sI581
S'/base/endorsements/endorsee/newspaper_endorsements./base/endorsements/newspaper_endorsement/newspaper'
p585
sI582
S'/user/tsegaran/random/taxonomy_subject/entry./user/tsegaran/random/taxonomy_entry/taxonomy'
p586
sI583
S'/location/statistical_region/gdp_nominal_per_capita./measurement_unit/dated_money_value/currency'
p587
sI584
S'/american_football/football_player/passing./american_football/player_passing_statistics/season'
p588
sI585
S'/organization/organization/place_founded'
p589
sI586
S'/base/x2010fifaworldcupsouthafrica/world_cup_squad/current_world_cup_squad./base/x2010fifaworldcupsouthafrica/current_world_cup_squad/current_club'
p590
sI587
S'/government/political_district/representatives./government/government_position_held/governmental_body'
p591
sI588
S'/sports/sports_championship/events'
p592
sI589
S'/people/person/gender'
p593
sI590
S'/sports/multi_event_tournament/sports'
p594
sI591
S'/base/petbreeds/dog_breed/group'
p595
sI592
S'/base/eating/practicer_of_diet/diet'
p596
sI593
S'/people/person/employment_history./business/employment_tenure/company'
p597
sI594
S'/book/written_work/subjects'
p598
sI595
S'/film/film/edited_by'
p599
sI596
S'/architecture/architectural_structure_owner/structures_owned./architecture/ownership/structure'
p600
sI597
S'/government/governmental_body/members./government/government_position_held/jurisdiction_of_office'
p601
sI598
S'/base/popstra/celebrity/bought./base/popstra/product_choice/product'
p602
sI599
S'/education/educational_institution/school_type'
p603
sI600
S'/base/endorsements/endorsing_newspaper/endorsements./base/endorsements/newspaper_endorsement/endorsee'
p604
sI601
S'/travel/transport_operator/travel_destinations_served./travel/transportation/transport_operator'
p605
sI602
S'/government/legislative_session/members./government/government_position_held/legislative_sessions'
p606
sI603
S'/location/hud_county_place/place'
p607
sI604
S'/award/award_category/nominees./award/award_nomination/award_nominee'
p608
sI605
S'/film/film/film_set_decoration_by'
p609
sI606
S'/education/academic/research_areas'
p610
sI607
S'/user/ktrueman/default_domain/international_organization/member_states'
p611
sI608
S'/olympics/olympic_participating_country/medals_won./olympics/olympic_medal_honor/medalist'
p612
sI609
S'/sports/sport/pro_athletes./sports/pro_sports_played/athlete'
p613
sI610
S'/soccer/football_team_manager/team./soccer/football_team_management_tenure/team'
p614
sI611
S'/people/family/members'
p615
sI612
S'/tv/tv_program/recurring_writers./tv/tv_program_writer_relationship/writer'
p616
sI613
S'/religion/religious_organization/associated_with'
p617
sI614
S'/film/film_character/portrayed_in_films_dubbed./film/dubbing_performance/film'
p618
sI615
S'/travel/travel_destination/how_to_get_here./travel/transportation/mode_of_transportation'
p619
sI616
S'/olympics/olympic_games/medals_awarded./olympics/olympic_medal_honor/country'
p620
sI617
S'/business/sponsored_recipient/sponsorship./business/sponsorship/sponsored_by'
p621
sI618
S'/organization/endowed_organization/endowment./measurement_unit/dated_money_value/currency'
p622
sI619
S'/award/award_winning_work/awards_won./award/award_honor/award_winner'
p623
sI620
S'/base/schemastaging/person_extra/net_worth./measurement_unit/dated_money_value/source'
p624
sI621
S'/aviation/airline/hubs'
p625
sI622
S'/computer/software/compatible_oses./computer/software_compatibility/operating_system'
p626
sI623
S'/location/statistical_region/places_imported_from./location/imports_and_exports/imported_from'
p627
sI624
S'/aviation/airport/serves'
p628
sI625
S'/base/fight/sports_official/sport'
p629
sI626
S'/soccer/football_player/goals_scored./soccer/football_goal/point_awarded_to'
p630
sI627
S'/sports/sports_award_winner/awards./sports/sports_award/team'
p631
sI628
S'/aviation/aircraft_type/aircraft_of_this_type'
p632
sI629
S'/organization/organization_type/organizations_of_this_type'
p633
sI630
S'/base/fight/crime_type/included_in_crimes'
p634
sI631
S'/architecture/structure/owner./architecture/ownership/owner'
p635
sI632
S'/military/military_conflict/force_strengths./military/force_strength/combatant'
p636
sI633
S'/sports/sports_team/roster./american_football/football_historical_roster_position/position_s'
p637
sI634
S'/people/person/children'
p638
sI635
S'/base/activism/activist/area_of_activism'
p639
sI636
S'/sports/pro_athlete/teams./basketball/basketball_roster_position/team'
p640
sI637
S'/broadcast/radio_format/stations'
p641
sI638
S'/royalty/monarch/royal_line'
p642
sI639
S'/user/robert/us_congress/us_representative/congressional_caucus_memberships'
p643
sI640
S'/broadcast/genre/content'
p644
sI641
S'/organization/organization/product_of_merger./organization/organization_merger/organizations_merging'
p645
sI642
S'/theater/play/genre'
p646
sI643
S'/music/genre/subgenre'
p647
sI644
S'/computer/software_developer/software'
p648
sI645
S'/sports/sports_position/players./sports/sports_team_roster/team'
p649
sI646
S'/education/school_mascot/school'
p650
sI647
S'/royalty/royal_line/kingdom_s_ruled'
p651
sI648
S'/ice_hockey/hockey_player/current_team./sports/sports_team_roster/position'
p652
sI649
S'/sports/sports_league_season/awards./sports/sports_award/award_winner'
p653
sI650
S'/architecture/architectural_style/architects'
p654
sI651
S'/business/asset_owner/assets_owned./business/asset_ownership/owned_asset'
p655
sI652
S'/government/legislative_session/members./government/government_position_held/office_position_or_title'
p656
sI653
S'/cvg/computer_videogame/sequel'
p657
sI654
S'/film/film/other_film_companies./film/film_film_company_relationship/film_company'
p658
sI655
S'/olympics/olympic_athlete/medals_won./olympics/olympic_medal_honor/country'
p659
sI656
S'/base/schemastaging/tv_character_extra/regular_dubbing_performances./base/schemastaging/tv_star_dubbing_performance/actor'
p660
sI657
S'/geography/geographical_feature/category'
p661
sI658
S'/award/award_presenting_organization/award_categories_presented'
p662
sI659
S'/award/ranked_item/appears_in_ranked_lists./award/ranking/list'
p663
sI660
S'/book/literary_series/author_s'
p664
sI661
S'/medicine/drug_class/drugs'
p665
sI662
S'/tv/tv_producer/tv_episodes_produced./tv/tv_producer_episode_credit/episode'
p666
sI663
S'/base/popstra/celebrity/hangout./base/popstra/hangout/business_location'
p667
sI664
S'/royalty/noble_title/used_in./royalty/system_title_relationship/system'
p668
sI665
S'/base/petbreeds/dog_coat_color/dog_breeds'
p669
sI666
S'/food/food/nutrients./food/nutrition_fact/nutrient'
p670
sI667
S'/military/military_post/used_by_armed_forces./military/military_post_use/armed_force'
p671
sI668
S'/computer/programming_language/dialects'
p672
sI669
S'/music/performance_role/regular_performances./music/group_membership/member'
p673
sI670
S'/sports/drafted_athlete/drafted./sports/sports_league_draft_pick/team'
p674
sI671
S'/baseball/baseball_team/historical_roster./baseball/baseball_historical_roster_position/player'
p675
sI672
S'/base/popstra/celebrity/supporter./base/popstra/support/supported_organization'
p676
sI673
S'/tv/tv_network/programs./tv/tv_network_duration/program'
p677
sI674
S'/language/language_writing_system/languages'
p678
sI675
S'/visual_art/art_period_movement/associated_artists'
p679
sI676
S'/military/military_conflict/military_personnel_involved'
p680
sI677
S'/film/film_festival_event/festival'
p681
sI678
S'/cvg/cvg_designer/games_designed'
p682
sI679
S'/government/governmental_jurisdiction/government_bodies'
p683
sI680
S'/base/folklore/mythical_creature/mythology'
p684
sI681
S'/architecture/architectural_style/examples'
p685
sI682
S'/architecture/architect/architectural_style'
p686
sI683
S'/education/educational_institution/colors'
p687
sI684
S'/law/inventor/inventions'
p688
sI685
S'/people/ethnicity/included_in_group'
p689
sI686
S'/base/fight/crime_type/people_convicted_of_this_crime./base/crime/criminal_conviction/guilty_of'
p690
sI687
S'/theater/play/lyricist'
p691
sI688
S'/people/person/education./education/education/degree'
p692
sI689
S'/fictional_universe/work_of_fiction/setting'
p693
sI690
S'/sports/pro_athlete/teams./baseball/baseball_roster_position/team'
p694
sI691
S'/base/x2010fifaworldcupsouthafrica/world_cup_squad/current_world_cup_squad./base/x2010fifaworldcupsouthafrica/current_world_cup_squad/players'
p695
sI692
S'/base/fight/sentence/convictions./base/crime/criminal_conviction/convicted_person'
p696
sI693
S'/base/americancomedy/comedy_group/members./base/americancomedy/comedy_group_membership/member'
p697
sI694
S'/dining/cuisine/dishes'
p698
sI695
S'/base/americancomedy/comedy_group_member/belongs_to./base/americancomedy/comedy_group_membership/group'
p699
sI696
S'/business/job_title/people_with_this_title./business/employment_tenure/person'
p700
sI697
S'/base/localfood/produce/availability./base/localfood/produce_availability/seasonal_months'
p701
sI698
S'/base/schemastaging/tv_program_extra/regular_dubbing_performances./base/schemastaging/tv_star_dubbing_performance/character'
p702
sI699
S'/education/academic_institution/visiting_scholars_fellows_etc./education/academic_post/person'
p703
sI700
S'/education/field_of_study/academics_in_this_field'
p704
sI701
S'/olympics/olympic_sport/athletes./olympics/olympic_athlete_affiliation/olympics'
p705
sI702
S'/broadcast/radio_station/format'
p706
sI703
S'/government/politician/government_positions_held./government/government_position_held/basic_title'
p707
sI704
S'/sports/pro_athlete/teams./ice_hockey/hockey_roster_position/position'
p708
sI705
S'/sports/sport/teams'
p709
sI706
S'/sports/sports_position/players./american_football/football_historical_roster_position/player'
p710
sI707
S'/military/military_combatant/force_deployments./military/force_strength/military_conflict'
p711
sI708
S'/basketball/basketball_position/player_roster_position./sports/sports_team_roster/team'
p712
sI709
S'/people/person/languages'
p713
sI710
S'/medicine/medical_treatment/side_effects'
p714
sI711
S'/people/place_of_interment/interred_here'
p715
sI712
S'/government/governmental_jurisdiction/government_positions'
p716
sI713
S'/government/government_office_category/officeholders./government/government_position_held/office_holder'
p717
sI714
S'/book/written_work/original_language'
p718
sI715
S'/time/event/instance_of_recurring_event'
p719
sI716
S'/sports/sports_team/roster./sports/sports_team_roster/player'
p720
sI717
S'/basketball/basketball_player/team./basketball/basketball_roster_position/team'
p721
sI718
S'/music/instrument/variation'
p722
sI719
S'/theater/theater_genre/plays_in_this_genre'
p723
sI720
S'/baseball/baseball_team/current_roster./baseball/baseball_roster_position/position'
p724
sI721
S'/ice_hockey/hockey_player/hockey_position'
p725
sI722
S'/olympics/olympic_athlete/country./olympics/olympic_athlete_affiliation/sport'
p726
sI723
S'/film/film_festival/location'
p727
sI724
S'/military/armed_force/military_posts./military/military_post_use/military_post'
p728
sI725
S'/base/rugby/rugby_player/type_of_rugby'
p729
sI726
S'/games/game_genre/boardgames'
p730
sI727
S'/symbols/name_source/namesakes'
p731
sI728
S'/tv/tv_personality/tv_regular_appearances./tv/tv_regular_personal_appearance/appearance_type'
p732
sI729
S'/film/film_job/films_with_this_crew_job./film/film_crew_gig/film'
p733
sI730
S'/base/contractbridge/bridge_player/first_place_finish./base/contractbridge/bridge_tournament_standings/first_place'
p734
sI731
S'/baseball/baseball_team/current_roster./sports/sports_team_roster/player'
p735
sI732
S'/computer/computer/manufacturer'
p736
sI733
S'/government/governmental_jurisdiction/official_symbols./location/location_symbol_relationship/symbol'
p737
sI734
S'/ice_hockey/hockey_team/current_roster./sports/sports_team_roster/player'
p738
sI735
S'/american_football/football_position/players'
p739
sI736
S'/people/family_member/family'
p740
sI737
S'/government/government_office_or_title/office_holders./government/government_position_held/office_holder'
p741
sI738
S'/computer/computer_manufacturer_brand/computer_models'
p742
sI739
S'/government/governmental_jurisdiction/agencies'
p743
sI740
S'/travel/transport_terminus/travel_destinations_served./travel/transportation/travel_destination'
p744
sI741
S'/common/resource/annotations./common/webpage/topic'
p745
sI742
S'/base/bioventurist/bv_medical_condition/company_involved'
p746
sI743
S'/award/award_category/category_of'
p747
sI744
S'/base/marchmadness/ncaa_basketball_team/ncaa_tournament_seeds./base/marchmadness/ncaa_tournament_seed/tournament'
p748
sI745
S'/sports/sports_team/roster./basketball/basketball_historical_roster_position/player'
p749
sI746
S'/sports/sports_facility/teams'
p750
sI747
S'/tv/tv_program/languages'
p751
sI748
S'/dataworld/gardening_hint/split_to'
p752
sI749
S'/film/film/produced_by'
p753
sI750
S'/american_football/football_coach/coaching_history./american_football/football_historical_coach_position/team'
p754
sI751
S'/base/thoroughbredracing/thoroughbred_racehorse/sex'
p755
sI752
S'/american_football/football_team/historical_coaching_staff./american_football/football_historical_coach_position/coach'
p756
sI753
S'/baseball/baseball_player/lifetime_batting_statistics./baseball/lifetime_batting_statistics/last_statistics_season'
p757
sI754
S'/education/educational_degree/people_with_this_degree./education/education/major_field_of_study'
p758
sI755
S'/music/musical_group/member./music/group_membership/member'
p759
sI756
S'/tv/tv_program/filming_locations'
p760
sI757
S'/user/mt/default_domain/metabolite/associated_disorder'
p761
sI758
S'/award/long_list_nominee/long_list_nominations./award/long_list_nomination/award'
p762
sI759
S'/computer/operating_system/includes_os_versions'
p763
sI760
S'/medicine/disease/symptoms'
p764
sI761
S'/language/human_language/main_country'
p765
sI762
S'/sports/sports_league_season/awards./sports/sports_award/award'
p766
sI763
S'/architecture/type_of_museum/museums'
p767
sI764
S'/base/crime/convicted_criminal/convictions./base/crime/criminal_conviction/sentence_type'
p768
sI765
S'/astronomy/star_system_body/star_system'
p769
sI766
S'/food/diet/followers'
p770
sI767
S'/film/film_festival/individual_festivals'
p771
sI768
S'/fictional_universe/fictional_character/based_on'
p772
sI769
S'/tv/tv_series_season/regular_cast./tv/regular_tv_appearance/series'
p773
sI770
S'/basketball/basketball_player/position_s'
p774
sI771
S'/base/popstra/location/vacationers./base/popstra/vacation_choice/vacationer'
p775
sI772
S'/military/military_combatant/military_commanders./military/military_command/military_commander'
p776
sI773
S'/location/administrative_division/capital./location/administrative_division_capital_relationship/capital'
p777
sI774
S'/government/politician/government_positions_held./government/government_position_held/office_position_or_title'
p778
sI775
S'/medicine/disease/notable_people_with_this_condition'
p779
sI776
S'/tv/tv_program/original_network./tv/tv_network_duration/network'
p780
sI777
S'/tv/tv_program/regular_personal_appearances./tv/tv_regular_personal_appearance/person'
p781
sI778
S'/sports/pro_athlete/teams./sports/sports_team_roster/team'
p782
sI779
S'/base/collectives/collective_member/member_of./base/collectives/collective_membership/collective'
p783
sI780
S'/aviation/airport/airlines./aviation/airline_airport_presence/airline'
p784
sI781
S'/soccer/football_player/current_team./soccer/football_roster_position/position'
p785
sI782
S'/film/actor/dubbing_performances./film/dubbing_performance/film'
p786
sI783
S'/sports/sports_team/roster./basketball/basketball_roster_position/position'
p787
sI784
S'/tv/tv_program/country_of_origin'
p788
sI785
S'/award/award_winning_work/awards_won./award/award_honor/ceremony'
p789
sI786
S'/education/field_of_study/students_majoring./education/education/specialization'
p790
sI787
S'/common/webpage/category'
p791
sI788
S'/biology/breed_registry/recognized_breeds./biology/breed_registration/breed'
p792
sI789
S'/music/record_label/artist'
p793
sI790
S'/media_common/adapted_work/adaptations'
p794
sI791
S'/user/tfmorris/default_domain/document/signatories'
p795
sI792
S'/comic_books/comic_book_publisher/comic_book_series_published'
p796
sI793
S'/medicine/disease_cause/diseases'
p797
sI794
S'/sports/sports_team/roster./ice_hockey/hockey_roster_position/position'
p798
sI795
S'/government/governmental_body/jurisdiction'
p799
sI796
S'/film/film/dubbing_performances./film/dubbing_performance/character'
p800
sI797
S'/government/election/office'
p801
sI798
S'/base/events/festival_series/type_of_festival'
p802
sI799
S'/medicine/medical_specialty/diseases_treated'
p803
sI800
S'/base/popstra/product/sold_to./base/popstra/product_choice/consumer'
p804
sI801
S'/military/military_commander/military_commands./military/military_command/military_combatant'
p805
sI802
S'/basketball/basketball_player/former_teams./basketball/basketball_historical_roster_position/team'
p806
sI803
S'/fictional_universe/ethnicity_in_fiction/characters_of_this_ethnicity'
p807
sI804
S'/award/award_nominated_work/award_nominations./award/award_nomination/award'
p808
sI805
S'/government/governmental_body/component_bodies'
p809
sI806
S'/protected_sites/listed_site/designation_as_natural_or_cultural_site./protected_sites/natural_or_cultural_site_listing/category_or_criteria'
p810
sI807
S'/organization/organization_scope/organizations_with_this_scope'
p811
sI808
S'/architecture/structure/architect'
p812
sI809
S'/education/field_of_study/students_majoring./education/education/student'
p813
sI810
S'/metropolitan_transit/transit_service_type/transit_lines'
p814
sI811
S'/user/alexander/philosophy/era/philosophers'
p815
sI812
S'/theater/theatrical_lyricist/play_lyrics_written'
p816
sI813
S'/fictional_universe/character_gender/characters_of_this_gender'
p817
sI814
S'/film/producer/films_executive_produced'
p818
sI815
S'/location/hud_foreclosure_area/total_residential_addresses./measurement_unit/dated_integer/source'
p819
sI816
S'/education/fraternity_sorority/colors'
p820
sI817
S'/sports/sports_position/players./american_football/football_historical_roster_position/position_s'
p821
sI818
S'/film/actor/film./film/performance/special_performance_type'
p822
sI819
S'/language/human_language/language_family'
p823
sI820
S'/protected_sites/protected_site/iucn_category'
p824
sI821
S'/organization/organization/headquarters./location/mailing_address/state_province_region'
p825
sI822
S'/government/political_appointer/appointees./government/government_position_held/governmental_body'
p826
sI823
S'/sports/pro_athlete/teams./baseball/baseball_roster_position/position'
p827
sI824
S'/government/governmental_body/members./government/government_position_held/basic_title'
p828
sI825
S'/astronomy/celestial_object_category/objects'
p829
sI826
S'/organization/organization/child./organization/organization_relationship/child'
p830
sI827
S'/american_football/football_player/rushing./american_football/player_rushing_statistics/team'
p831
sI828
S'/film/film/genre'
p832
sI829
S'/olympics/olympic_participating_country/athletes./olympics/olympic_athlete_affiliation/olympics'
p833
sI830
S'/common/annotation_category/annotations'
p834
sI831
S'/biology/breed_origin/breeds_originating_here'
p835
sI832
S'/base/popstra/celebrity/friendship./base/popstra/friendship/participant'
p836
sI833
S'/tv/non_character_role/tv_guest_personal_appearances./tv/tv_guest_personal_appearance/person'
p837
sI834
S'/law/invention/inventor'
p838
sI835
S'/sports/pro_athlete/teams./ice_hockey/hockey_previous_roster_position/team'
p839
sI836
S'/broadcast/content/broadcast'
p840
sI837
S'/award/award_category/winners./award/award_honor/award_winner'
p841
sI838
S'/medicine/notable_person_with_medical_condition/condition'
p842
sI839
S'/biology/organism_classification/lower_classifications'
p843
sI840
S'/media_common/netflix_title/netflix_genres'
p844
sI841
S'/law/court/judges./law/judicial_tenure/judge'
p845
sI842
S'/olympics/olympic_games/sports'
p846
sI843
S'/cvg/computer_videogame/game_series'
p847
sI844
S'/american_football/football_coach_position/coaches_holding_this_position./american_football/football_historical_coach_position/team'
p848
sI845
S'/organization/organization_founder/organizations_founded'
p849
sI846
S'/film/film_festival_event/films'
p850
sI847
S'/celebrities/celebrity/sexual_orientation./celebrities/sexual_orientation_phase/sexual_orientation'
p851
sI848
S'/travel/transport_terminus/travel_destinations_served./travel/transportation/mode_of_transportation'
p852
sI849
S'/base/thoroughbredracing/thoroughbred_racehorse_color/horses_of_this_color'
p853
sI850
S'/sports/sports_team/league./sports/sports_league_participation/league'
p854
sI851
S'/broadcast/broadcast/distributor'
p855
sI852
S'/book/magazine/genre'
p856
sI853
S'/sports/sports_championship_event/champion'
p857
sI854
S'/tv/tv_program/tv_producer./tv/tv_producer_term/producer_type'
p858
sI855
S'/film/film/costume_design_by'
p859
sI856
S'/computer/programming_language_paradigm/languages'
p860
sI857
S'/user/tsegaran/random/subject_taxonomy/entry./user/tsegaran/random/taxonomy_entry/subject'
p861
sI858
S'/organization/organization/spin_offs./organization/organization_spin_off/child_company'
p862
sI859
S'/royalty/system_of_nobility/titles./royalty/system_title_relationship/title'
p863
sI860
S'/award/award_winner/awards_won./award/award_honor/award'
p864
sI861
S'/award/hall_of_fame_inductee/hall_of_fame_inductions./award/hall_of_fame_induction/hall_of_fame'
p865
sI862
S'/soccer/football_team/current_roster./soccer/football_roster_position/player'
p866
sI863
S'/cvg/game_character/games./cvg/game_performance/voice_actor'
p867
sI864
S'/location/location/events'
p868
sI865
S'/soccer/football_team/current_roster./sports/sports_team_roster/player'
p869
sI866
S'/protected_sites/governing_body_of_protected_sites/protected_sites_governed'
p870
sI867
S'/common/topic/webpage./common/webpage/category'
p871
sI868
S'/soccer/football_team/league./soccer/football_league_participation/league'
p872
sI869
S'/olympics/olympic_athlete/country./olympics/olympic_athlete_affiliation/country'
p873
sI870
S'/baseball/baseball_player/batting_stats./baseball/batting_statistics/team'
p874
sI871
S'/organization/organization/sectors'
p875
sI872
S'/sports/sports_team/roster./sports/sports_team_roster/position'
p876
sI873
S'/user/narphorium/people/wealthy_person/net_worth./measurement_unit/dated_money_value/currency'
p877
sI874
S'/sports/sports_position/players./baseball/baseball_roster_position/player'
p878
sI875
S'/base/x2010fifaworldcupsouthafrica/world_cup_squad/current_world_cup_squad./base/x2010fifaworldcupsouthafrica/current_world_cup_squad/position'
p879
sI876
S'/fictional_universe/fictional_character/species'
p880
sI877
S'/people/person/ethnicity'
p881
sI878
S'/government/political_appointer/appointees./government/government_position_held/basic_title'
p882
sI879
S'/astronomy/orbital_relationship/orbited_by'
p883
sI880
S'/government/legislative_session/members./government/government_position_held/governmental_body'
p884
sI881
S'/education/field_of_study/subdisciplines'
p885
sI882
S'/religion/religious_organization/leaders./religion/religious_organization_leadership/leader'
p886
sI883
S'/visual_art/art_subject/artwork_on_the_subject'
p887
sI884
S'/government/government_office_category/officeholders./government/government_position_held/jurisdiction_of_office'
p888
sI885
S'/award/hall_of_fame_discipline/halls_of_fame'
p889
sI886
S'/olympics/olympic_games/athletes./olympics/olympic_athlete_affiliation/athlete'
p890
sI887
S'/business/business_operation/current_liabilities./measurement_unit/dated_money_value/currency'
p891
sI888
S'/film/film/estimated_budget./measurement_unit/dated_money_value/currency'
p892
sI889
S'/business/sponsor/sponsorship./business/sponsorship/sponsored_recipient'
p893
sI890
S'/media_common/media_genre/parent_genre'
p894
sI891
S'/fictional_universe/character_powers/characters_with_this_ability'
p895
sI892
S'/medicine/icd_9_cm_classification/includes_classifications'
p896
sI893
S'/american_football/football_player/passing./american_football/player_passing_statistics/team'
p897
sI894
S'/base/parody/parody/parody_of'
p898
sI895
S'/location/country/capital'
p899
sI896
S'/location/location/adjoin_s./location/adjoining_relationship/adjoins'
p900
sI897
S'/book/author/series_written_or_contributed_to'
p901
sI898
S'/music/conducted_ensemble/conductors./music/conducting_tenure/conductor'
p902
sI899
S'/theater/play/country_of_origin'
p903
sI900
S'/media_common/dedicated_work/dedication./media_common/dedication/dedicated_to'
p904
sI901
S'/american_football/football_player/position_s'
p905
sI902
S'/user/robert/us_congress/us_representative/committee_memberships'
p906
sI903
S'/royalty/kingdom/rulers'
p907
sI904
S'/base/patronage/client/related_patron./base/patronage/patron_client_relationship/patron'
p908
sI905
S'/film/actor/film./film/performance/film'
p909
sI906
S'/government/government_office_or_title/office_holders./government/government_position_held/governmental_body'
p910
sI907
S'/media_common/dedicatee/dedications./media_common/dedication/work_dedicated'
p911
sI908
S'/base/localfood/seasonal_month/produce_available./base/localfood/produce_availability/produce'
p912
sI909
S'/cvg/computer_videogame/designers'
p913
sI910
S'/base/argumentmaps/abstract_moral_dispute/particular_instances'
p914
sI911
S'/book/newspaper_owner/newspapers_owned'
p915
sI912
S'/business/job_title/people_with_this_title./business/employment_tenure/company'
p916
sI913
S'/sports/sports_team/championships'
p917
sI914
S'/government/government_office_category/officeholders./government/government_position_held/governmental_body'
p918
sI915
S'/base/contractbridge/bridge_player/teammates./base/contractbridge/bridge_player_teammates/teammate'
p919
sI916
S'/people/marriage_union_type/unions_of_this_type./people/marriage/location_of_ceremony'
p920
sI917
S'/tv/special_tv_performance_type/starring_performances./tv/regular_tv_appearance/series'
p921
sI918
S'/base/nobelprizes/nobel_subject_area/nobel_awards./base/nobelprizes/nobel_honor/nobel_prize_winner'
p922
sI919
S'/military/military_combatant/military_commanders./military/military_command/military_conflict'
p923
sI920
S'/location/location/street_address./location/mailing_address/citytown'
p924
sI921
S'/base/popstra/company/fashion_choice./base/popstra/fashion_choice/fashion_wearer'
p925
sI922
S'/computer/programming_language/language_paradigms'
p926
sI923
S'/geography/river/cities'
p927
sI924
S'/ice_hockey/hockey_team/historical_roster./sports/sports_team_roster/player'
p928
sI925
S'/music/album/genre'
p929
sI926
S'/base/popstra/celebrity/canoodled./base/popstra/canoodled/participant'
p930
sI927
S'/biology/organism_classification/higher_classification'
p931
sI928
S'/geography/body_of_water/islands'
p932
sI929
S'/olympics/olympic_medal/medal_winners./olympics/olympic_medal_honor/medalist'
p933
sI930
S'/sports/pro_athlete/teams./american_football/football_historical_roster_position/position_s'
p934
sI931
S'/organization/organization/companies_acquired./business/acquisition/company_acquired'
p935
sI932
S'/government/government_office_category/offices'
p936
sI933
S'/base/americancomedy/comedy_genre/comedians_in_this_genre'
p937
sI934
S'/base/marchmadness/ncaa_basketball_tournament/seeds./base/marchmadness/ncaa_tournament_seed/team'
p938
sI935
S'/sports/sports_team/arena_stadium'
p939
sI936
S'/base/contractbridge/bridge_tournament/standing./base/contractbridge/bridge_tournament_standings/first_place'
p940
sI937
S'/geography/island/body_of_water'
p941
sI938
S'/tv/tv_actor/guest_roles./tv/tv_guest_role/episodes_appeared_in'
p942
sI939
S'/visual_art/artwork/art_genre'
p943
sI940
S'/location/statistical_region/places_exported_to./location/imports_and_exports/exported_to'
p944
sI941
S'/film/film/film_festivals'
p945
sI942
S'/film/film/country'
p946
sI943
S'/common/topic/webpage./common/webpage/topic'
p947
sI944
S'/award/award/category'
p948
sI945
S'/computer/operating_system_developer/operating_systems_developed'
p949
sI946
S'/location/statistical_region/gdp_nominal./measurement_unit/dated_money_value/currency'
p950
sI947
S'/travel/travel_destination/tourist_attractions'
p951
sI948
S'/computer/software_genre/software_in_genre'
p952
sI949
S'/film/film_character/portrayed_in_films./film/performance/actor'
p953
sI950
S'/basketball/basketball_team/historical_roster./basketball/basketball_historical_roster_position/player'
p954
sI951
S'/location/us_county/county_seat'
p955
sI952
S'/government/government_office_or_title/office_holders./government/government_position_held/legislative_sessions'
p956
sI953
S'/government/government_office_or_title/jurisdiction'
p957
sI954
S'/base/schemastaging/tv_actor_extra/regular_dubbing_performances./base/schemastaging/tv_star_dubbing_performance/language'
p958
sI955
S'/education/university/international_tuition./measurement_unit/dated_money_value/currency'
p959
sI956
S'/film/film_subject/films'
p960
sI957
S'/symbols/namesake/named_after'
p961
sI958
S'/award/award_winner/awards_won./award/award_honor/ceremony'
p962
sI959
S'/basketball/basketball_position/players'
p963
sI960
S'/cvg/computer_game_subject/games'
p964
sI961
S'/award/hall_of_fame/discipline'
p965
sI962
S'/tv/tv_character/appeared_in_tv_program./tv/regular_tv_appearance/series'
p966
sI963
S'/tennis/tennis_player/matches_won./tennis/tennis_match/loser'
p967
sI964
S'/user/szaijan/fantasy_football/player/position'
p968
sI965
S'/education/educational_degree/people_with_this_degree./education/education/specialization'
p969
sI966
S'/film/film_distributor/films_distributed./film/film_film_distributor_relationship/film'
p970
sI967
S'/location/administrative_division/first_level_division_of'
p971
sI968
S'/tv/tv_series_season/series'
p972
sI969
S'/base/activism/organization/area_of_activism'
p973
sI970
S'/visual_art/visual_art_genre/artworks'
p974
sI971
S'/government/government_office_or_title/office_holders./government/government_position_held/jurisdiction_of_office'
p975
sI972
S'/base/academyawards/host_of_oscar_show/oscar_show_hosted'
p976
sI973
S'/computer/programming_language/language_designers'
p977
sI974
S'/visual_art/visual_artist/art_forms'
p978
sI975
S'/base/argumentmaps/innovator/original_ideas'
p979
sI976
S'/tv/tv_personality/tv_regular_appearances./tv/tv_regular_personal_appearance/program'
p980
sI977
S'/government/governmental_jurisdiction/governing_officials./government/government_position_held/governmental_body'
p981
sI978
S'/food/dish/ingredients'
p982
sI979
S'/geography/geographical_feature_category/features'
p983
sI980
S'/comic_books/comic_book_creator/characters_created'
p984
sI981
S'/organization/organization/leadership./organization/leadership/role'
p985
sI982
S'/film/film_costumer_designer/costume_design_for_film'
p986
sI983
S'/film/film/language'
p987
sI984
S'/fictional_universe/work_of_fiction/part_of_these_fictional_universes'
p988
sI985
S'/book/periodical_format/periodicals_in_this_format./book/periodical_format_period/periodical'
p989
sI986
S'/american_football/football_player/rushing./american_football/player_rushing_statistics/season'
p990
sI987
S'/baseball/baseball_player/current_team./sports/sports_team_roster/team'
p991
sI988
S'/base/fashionmodels/hair_color/fashion_models_with_this_hair_color'
p992
sI989
S'/film/film_character/portrayed_in_films./film/performance/film'
p993
sI990
S'/base/schemastaging/tv_actor_extra/regular_dubbing_performances./base/schemastaging/tv_star_dubbing_performance/program'
p994
sI991
S'/base/crime/crime/victim_s'
p995
sI992
S'/tv/tv_series_season/regular_cast./tv/regular_tv_appearance/actor'
p996
sI993
S'/basketball/basketball_player/former_teams./sports/sports_team_roster/team'
p997
sI994
S'/baseball/baseball_team/historical_roster./sports/sports_team_roster/player'
p998
sI995
S'/base/wrestling/professional_wrestler/member_of_team'
p999
sI996
S'/organization/organization/legal_structure'
p1000
sI997
S'/film/actor/film./film/performance/character'
p1001
sI998
S'/sports/sports_league_draft/picks./sports/sports_league_draft_pick/player'
p1002
sI999
S'/sports/drafted_athlete/drafted./sports/sports_league_draft_pick/draft'
p1003
sI1000
S'/base/bioventurist/science_or_technology_company/develops_treatments_for_disease'
p1004
sI1001
S'/tv/tv_series_season/regular_cast./tv/regular_tv_appearance/seasons'
p1005
sI1002
S'/sports/sports_team/roster./american_football/football_roster_position/position'
p1006
sI1003
S'/award/award_category/winners./award/award_honor/honored_for'
p1007
sI1004
S'/dining/cuisine/ingredients'
p1008
sI1005
S'/government/governmental_jurisdiction/governing_officials./government/government_position_held/district_represented'
p1009
sI1006
S'/award/hall_of_fame_inductee/hall_of_fame_inductions./award/hall_of_fame_induction/category'
p1010
sI1007
S'/computer/programming_language/influenced'
p1011
sI1008
S'/tv/tv_character/appeared_in_tv_episodes./tv/tv_guest_role/actor'
p1012
sI1009
S'/education/school_district/locations_served'
p1013
sI1010
S'/exhibitions/exhibition_sponsor/exhibitions_sponsored./exhibitions/exhibition_run/sponsor'
p1014
sI1011
S'/religion/religion/includes'
p1015
sI1012
S'/theater/theater_actor/theater_roles./theater/theater_role/role'
p1016
sI1013
S'/organization/organization/leadership./organization/leadership/person'
p1017
sI1014
S'/music/concert_tour/artist'
p1018
sI1015
S'/american_football/football_player/former_teams./sports/sports_team_roster/team'
p1019
sI1016
S'/sports/sports_team/roster./ice_hockey/hockey_roster_position/player'
p1020
sI1017
S'/tv/tv_program/regular_cast./tv/regular_tv_appearance/character'
p1021
sI1018
S'/base/petbreeds/city_with_dogs/top_breeds./base/petbreeds/dog_city_relationship/dog_breed'
p1022
sI1019
S'/government/political_ideology/political_parties'
p1023
sI1020
S'/celebrities/celebrity/sexual_relationships./celebrities/romantic_relationship/celebrity'
p1024
sI1021
S'/sports/pro_athlete/teams./ice_hockey/hockey_roster_position/team'
p1025
sI1022
S'/government/governmental_jurisdiction/governing_officials./government/government_position_held/legislative_sessions'
p1026
sI1023
S'/government/government_office_category/officeholders./government/government_position_held/district_represented'
p1027
sI1024
S'/exhibitions/exhibition_sponsor/exhibitions_sponsored./exhibitions/exhibition_run/venue'
p1028
sI1025
S'/media_common/adaptation/adapted_from'
p1029
sI1026
S'/tennis/tennis_tournament_champion/tennis_titles./tennis/tennis_tournament_championship/winner'
p1030
sI1027
S'/book/periodical/publisher./book/periodical_publisher_period/publisher'
p1031
sI1028
S'/biology/domesticated_animal/breeds'
p1032
sI1029
S'/people/deceased_person/place_of_cremation'
p1033
sI1030
S'/sports/sports_award_type/winners./sports/sports_award/season'
p1034
sI1031
S'/religion/religious_leader/religious_leadership./religion/religious_organization_leadership/organization'
p1035
sI1032
S'/organization/organization/headquarters./location/mailing_address/citytown'
p1036
sI1033
S'/film/personal_film_appearance_type/film_appearances./film/personal_film_appearance/person'
p1037
sI1034
S'/fictional_universe/fictional_job_title/fictional_characters_with_this_job./fictional_universe/fictional_employment_tenure/employee'
p1038
sI1035
S'/location/country/currency_formerly_used'
p1039
sI1036
S'/location/hud_county_place/county'
p1040
sI1037
S'/sports/pro_athlete/teams./basketball/basketball_historical_roster_position/team'
p1041
sI1038
S'/government/political_party/ideology'
p1042
sI1039
S'/organization/organization/founders'
p1043
sI1040
S'/film/film/directed_by'
p1044
sI1041
S'/sports/sports_equipment/sport_used_for'
p1045
sI1042
S'/user/robert/military/military_person/participated_in_conflicts'
p1046
sI1043
S'/music/instrument/family'
p1047
sI1044
S'/travel/transport_operator/travel_destinations_served./travel/transportation/travel_destination'
p1048
sI1045
S'/base/x2010fifaworldcupsouthafrica/world_cup_participant/world_cup_team./base/x2010fifaworldcupsouthafrica/current_world_cup_squad/current_club'
p1049
sI1046
S'/internet/website/owner_new./internet/website_ownership/owner'
p1050
sI1047
S'/comic_books/comic_book_character/primary_universe'
p1051
sI1048
S'/base/biblioness/bibs_location/city'
p1052
sI1049
S'/user/szaijan/fantasy_football/position/player'
p1053
sI1050
S'/user/tsegaran/computer/algorithm/family'
p1054
sI1051
S'/cvg/cvg_developer/games_developed'
p1055
sI1052
S'/location/location/street_address./location/mailing_address/state_province_region'
p1056
sI1053
S'/cvg/computer_videogame/publisher'
p1057
sI1054
S'/broadcast/content/producer'
p1058
sI1055
S'/award/hall_of_fame_induction_category/inductees./award/hall_of_fame_induction/inductee'
p1059
sI1056
S'/sports/sports_team/season_record./sports/sports_team_season_record/season'
p1060
sI1057
S'/language/human_language/dialects'
p1061
sI1058
S'/interests/collection_category/sub_categories'
p1062
sI1059
S'/organization/role/governors./organization/organization_board_membership/member'
p1063
sI1060
S'/government/political_appointer/appointees./government/government_position_held/office_position_or_title'
p1064
sI1061
S'/base/schemastaging/organization_extra/phone_number./base/schemastaging/phone_sandbox/product_or_service'
p1065
sI1062
S'/olympics/olympic_participating_country/medals_won./olympics/olympic_medal_honor/olympics'
p1066
sI1063
S'/business/consumer_company/products./business/company_product_relationship/consumer_product'
p1067
sI1064
S'/film/film/cinematography'
p1068
sI1065
S'/language/human_language/writing_system'
p1069
sI1066
S'/base/fight/crime_type/victims_of_this_crime_type'
p1070
sI1067
S'/people/appointee/position./people/appointment/appointed_by'
p1071
sI1068
S'/cvg/computer_videogame/characters./cvg/game_performance/character'
p1072
sI1069
S'/fictional_universe/character_species/characters_of_this_species'
p1073
sI1070
S'/medicine/drug_ingredient/active_moiety_of_drug'
p1074
sI1071
S'/medicine/symptom/side_effect_of'
p1075
sI1072
S'/film/film/other_crew./film/film_crew_gig/film_crew_role'
p1076
sI1073
S'/government/governmental_jurisdiction/governing_officials./government/government_position_held/appointed_by'
p1077
sI1074
S'/olympics/olympic_medal/medal_winners./olympics/olympic_medal_honor/olympics'
p1078
sI1075
S'/base/petbreeds/dog_breed/size./base/petbreeds/dog_size/gender'
p1079
sI1076
S'/location/country/currency_used'
p1080
sI1077
S'/military/military_person/participated_in_conflicts'
p1081
sI1078
S'/olympics/olympic_athlete/medals_won./olympics/olympic_medal_honor/medalist'
p1082
sI1079
S'/travel/transport_terminus/travel_destinations_served./travel/transportation/transport_terminus'
p1083
sI1080
S'/aviation/airline_alliance/member_airlines'
p1084
sI1081
S'/aviation/airport/airlines./aviation/airline_airport_presence/cities_served'
p1085
sI1082
S'/film/film/release_date_s./film/film_regional_release_date/film_release_region'
p1086
sI1083
S'/religion/religion/practices'
p1087
sI1084
S'/sports/school_sports_team/school'
p1088
sI1085
S'/base/fight/crime_type/people_convicted_of_this_crime./base/crime/criminal_conviction/convicted_person'
p1089
sI1086
S'/media_common/dedicator/dedications./media_common/dedication/work_dedicated'
p1090
sI1087
S'/tv/tv_program_guest/appeared_on./tv/tv_guest_personal_appearance/appearance_type'
p1091
sI1088
S'/american_football/football_player/receiving./american_football/player_receiving_statistics/season'
p1092
sI1089
S'/sports/sports_award_winner/awards./sports/sports_award/season'
p1093
sI1090
S'/film/personal_film_appearance_type/film_appearances./film/personal_film_appearance/film'
p1094
sI1091
S'/award/ranked_list/ranked_list_items./award/ranking/item'
p1095
sI1092
S'/sports/professional_sports_team/draft_picks./sports/sports_league_draft_pick/draft'
p1096
sI1093
S'/transportation/bridge_type/bridges_of_this_type'
p1097
sI1094
S'/base/localfood/produce/availability./base/localfood/produce_availability/location'
p1098
sI1095
S'/sports/sports_position/players./sports/sports_team_roster/player'
p1099
sI1096
S'/geography/island/island_group'
p1100
sI1097
S'/influence/influence_node/influenced_by'
p1101
sI1098
S'/award/award_category/nominees./award/award_nomination/nominated_for'
p1102
sI1099
S'/baseball/baseball_player/former_teams./sports/sports_team_roster/team'
p1103
sI1100
S'/military/military_person/service./military/military_service/rank'
p1104
sI1101
S'/american_football/football_player/current_team./american_football/football_roster_position/position'
p1105
sI1102
S'/fictional_universe/fictional_character/place_of_birth'
p1106
sI1103
S'/organization/organization/geographic_scope'
p1107
sI1104
S'/music/voice/singers'
p1108
sI1105
S'/base/schemastaging/organization_extra/phone_number./base/schemastaging/phone_sandbox/service_location'
p1109
sI1106
S'/film/film/starring./film/performance/character'
p1110
sI1107
S'/baseball/baseball_player/current_team./sports/sports_team_roster/position'
p1111
sI1108
S'/visual_art/artwork/art_form'
p1112
sI1109
S'/award/award_nominee/award_nominations./award/award_nomination/award_nominee'
p1113
sI1110
S'/user/alexbl/honorary_title/titled_person/honorary_title./user/alexbl/honorary_title/honorary_title_holding/honorary_title'
p1114
sI1111
S'/music/performance_role/guest_performances./music/recording_contribution/contributor'
p1115
sI1112
S'/government/government_office_or_title/office_holders./government/government_position_held/basic_title'
p1116
sI1113
S'/people/appointed_role/appointment./people/appointment/appointee'
p1117
sI1114
S'/geography/lake/basin_countries'
p1118
sI1115
S'/government/governmental_jurisdiction/governing_officials./government/government_position_held/basic_title'
p1119
sI1116
S'/tv/tv_actor/starring_roles./tv/regular_tv_appearance/special_performance_type'
p1120
sI1117
S'/sports/sports_team/roster./baseball/baseball_roster_position/player'
p1121
sI1118
S'/book/author/works_written'
p1122
sI1119
S'/broadcast/content/language'
p1123
sI1120
S'/food/ingredient/compatible_with_dietary_restrictions'
p1124
sI1121
S'/basketball/basketball_position/player_roster_position./basketball/basketball_roster_position/team'
p1125
sI1122
S'/base/ecology/food_web_member/belongs_to_ecosystem_s'
p1126
sI1123
S'/base/nobelprizes/nobel_subject_area/nobel_awards./base/nobelprizes/nobel_honor/subject_area'
p1127
sI1124
S'/film/film/distributors./film/film_film_distributor_relationship/film_distribution_medium'
p1128
sI1125
S'/base/popstra/company/product_endorser./base/popstra/paid_support/endorser'
p1129
sI1126
S'/olympics/olympic_games/participating_countries'
p1130
sI1127
S'/award/hall_of_fame/inductees./award/hall_of_fame_induction/inductee'
p1131
sI1128
S'/religion/religion/deities'
p1132
sI1129
S'/language/language_dialect/language'
p1133
sI1130
S'/fictional_universe/fictional_character/rank'
p1134
sI1131
S'/basketball/basketball_player/team./sports/sports_team_roster/position'
p1135
sI1132
S'/people/appointed_role/appointment./people/appointment/appointed_by'
p1136
sI1133
S'/tv/tv_program_creator/programs_created'
p1137
sI1134
S'/education/educational_institution/students_graduates./education/education/minor'
p1138
sI1135
S'/location/location/people_born_here'
p1139
sI1136
S'/biology/breed_group/breeds_in_this_group./biology/breed_registration/breed'
p1140
sI1137
S'/tv/non_character_role/tv_regular_personal_appearances./tv/tv_regular_personal_appearance/person'
p1141
sI1138
S'/education/educational_institution/subsidiary_or_constituent_schools'
p1142
sI1139
S'/internet/website/category'
p1143
sI1140
S'/basketball/basketball_player/team./sports/sports_team_roster/team'
p1144
sI1141
S'/theater/theater_character/portrayed_by./theater/theater_role/actor'
p1145
sI1142
S'/sports/pro_athlete/teams./basketball/basketball_roster_position/position'
p1146
sI1143
S'/sports/pro_athlete/teams./sports/sports_team_roster/position'
p1147
sI1144
S'/sports/sports_league_draft/picks./sports/sports_league_draft_pick/school'
p1148
sI1145
S'/government/government_agency/jurisdiction'
p1149
sI1146
S'/base/petbreeds/dog_breed/cities_where_this_dog_is_popular./base/petbreeds/dog_city_relationship/cities'
p1150
sI1147
S'/base/popstra/celebrity/religion./base/popstra/religion_choice/religion'
p1151
sI1148
S'/royalty/noble_title/holders./royalty/noble_title_tenure/noble_person'
p1152
sI1149
S'/comic_books/comic_book_series/featured_characters'
p1153
sI1150
S'/geography/river/mouth'
p1154
sI1151
S'/location/statistical_region/rent50_0./measurement_unit/dated_money_value/currency'
p1155
sI1152
S'/religion/religion/texts'
p1156
sI1153
S'/baseball/baseball_player/current_team./baseball/baseball_roster_position/team'
p1157
sI1154
S'/book/periodical_publisher/periodicals_published./book/periodical_publisher_period/periodical'
p1158
sI1155
S'/film/film_location/featured_in_films'
p1159
sI1156
S'/base/collectives/collective/members./base/collectives/collective_membership/member'
p1160
sI1157
S'/transportation/bridge/bridge_type'
p1161
sI1158
S'/medicine/disease/parent_disease'
p1162
sI1159
S'/film/film/other_crew./film/film_crew_gig/crewmember'
p1163
sI1160
S'/common/topic/subject_of'
p1164
sI1161
S'/medicine/disease/medical_specialties'
p1165
sI1162
S'/film/film_character/portrayed_in_films_dubbed./film/dubbing_performance/language'
p1166
sI1163
S'/book/newspaper/headquarters./location/mailing_address/citytown'
p1167
sI1164
S'/sports/sports_team/roster./baseball/baseball_historical_roster_position/player'
p1168
sI1165
S'/award/award_winner/awards_won./award/award_honor/honored_for'
p1169
sI1166
S'/business/board_member/organization_board_memberships./organization/organization_board_membership/organization'
p1170
sI1167
S'/tv/tv_program/tv_producer./tv/tv_producer_term/producer'
p1171
sI1168
S'/base/petbreeds/dog_breed_group/dog_breeds'
p1172
sI1169
S'/book/book/genre'
p1173
sI1170
S'/base/popstra/celebrity/eats_at./base/popstra/restaurant_choice/restaurant'
p1174
sI1171
S'/aviation/aircraft_model/number_owned_by./aviation/aircraft_ownership_count/aircraft_owner'
p1175
sI1172
S'/tv/tv_series_episode/writer'
p1176
sI1173
S'/baseball/baseball_player/lifetime_batting_statistics./baseball/lifetime_batting_statistics/starting_season'
p1177
sI1174
S'/medicine/drug_ingredient/more_specific_ingredient'
p1178
sI1175
S'/base/culturalevent/event/entity_involved'
p1179
sI1176
S'/book/periodical/subjects'
p1180
sI1177
S'/martial_arts/martial_art/well_known_practitioner'
p1181
sI1178
S'/education/academic/advisees'
p1182
sI1179
S'/protected_sites/iucn_category/protected_areas'
p1183
sI1180
S'/music/group_member/artists_supported'
p1184
sI1181
S'/comic_books/comic_book_fictional_universe/characters_primarily_appearing_in_this_universe'
p1185
sI1182
S'/film/director/film'
p1186
sI1183
S'/base/schemastaging/organization_extra/phone_number./base/schemastaging/phone_sandbox/service_language'
p1187
sI1184
S'/business/board_member/leader_of./organization/leadership/organization'
p1188
sI1185
S'/organization/organization/acquired_by./business/acquisition/acquiring_company'
p1189
sI1186
S'/film/actor/dubbing_performances./film/dubbing_performance/character'
p1190
sI1187
S'/tv/tv_actor/guest_roles./tv/tv_guest_role/special_performance_type'
p1191
sI1188
S'/tv/tv_character/appeared_in_tv_program./tv/regular_tv_appearance/actor'
p1192
sI1189
S'/visual_art/visual_art_form/artworks'
p1193
sI1190
S'/music/album_release_type/albums'
p1194
sI1191
S'/food/ingredient/dishes'
p1195
sI1192
S'/business/business_operation/operating_income./measurement_unit/dated_money_value/currency'
p1196
sI1193
S'/music/performance_role/guest_performances./music/recording_contribution/performance_role'
p1197
sI1194
S'/base/crime/crime_victim/crime_type'
p1198
sI1195
S'/media_common/dedicated_work/dedication./media_common/dedication/dedicated_by'
p1199
sI1196
S'/cvg/game_voice_actor/computer_game_voice_performances./cvg/game_performance/game'
p1200
sI1197
S'/education/educational_degree/people_with_this_degree./education/education/institution'
p1201
sI1198
S'/military/military_combatant/casualties./military/casualties/military_conflict'
p1202
sI1199
S'/broadcast/broadcast/content'
p1203
sI1200
S'/organization/organization/phone_number./common/phone_number/category'
p1204
sI1201
S'/comic_books/comic_book_series/publisher'
p1205
sI1202
S'/religion/religion/organizations'
p1206
sI1203
S'/film/person_or_entity_appearing_in_film/films./film/personal_film_appearance/type_of_appearance'
p1207
sI1204
S'/base/americancomedy/impersonated_celebrity/impersonated_by'
p1208
sI1205
S'/base/aareas/schema/administrative_area/administrative_area_type'
p1209
sI1206
S'/tv/tv_program/seasons'
p1210
sI1207
S'/user/alexander/philosophy/subject/philosophers'
p1211
sI1208
S'/military/military_combatant/military_conflicts./military/military_combatant_group/conflict'
p1212
sI1209
S'/computer/operating_system/developer'
p1213
sI1210
S'/dining/restaurant/cuisine'
p1214
sI1211
S'/user/alexander/philosophy/philosopher/era'
p1215
sI1212
S'/metropolitan_transit/transit_line/service_type'
p1216
sI1213
S'/organization/organization/organization_type'
p1217
sI1214
S'/american_football/football_coach/coaching_history./american_football/football_historical_coach_position/position'
p1218
sI1215
S'/film/film/executive_produced_by'
p1219
sI1216
S'/broadcast/distributor/distributes'
p1220
sI1217
S'/film/film/film_production_design_by'
p1221
sI1218
S'/computer/computer/compatible_oses./computer/os_compatibility/operating_system'
p1222
sI1219
S'/baseball/baseball_team/current_roster./baseball/baseball_roster_position/player'
p1223
sI1220
S'/sports/sport/officials'
p1224
sI1221
S'/education/school_district/schools'
p1225
sI1222
S'/sports/pro_athlete/teams./soccer/football_roster_position/position'
p1226
sI1223
S'/religion/place_of_worship/religion'
p1227
sI1224
S'/aviation/airliner_accident/flight_destination'
p1228
sI1225
S'/tv/tv_series_episode/series'
p1229
sI1226
S'/film/film/sequel'
p1230
sI1227
S'/fictional_universe/fictional_universe/works_set_here'
p1231
sI1228
S'/broadcast/content/location'
p1232
sI1229
S'/ice_hockey/hockey_team/current_roster./sports/sports_team_roster/position'
p1233
sI1230
S'/broadcast/radio_station_owner/radio_stations'
p1234
sI1231
S'/tv/tv_writer/episodes_written'
p1235
sI1232
S'/book/periodical_subject/periodicals'
p1236
sI1233
S'/base/nobelprizes/nobel_prize_winner/nobel_honor./base/nobelprizes/nobel_honor/subject_area'
p1237
sI1234
S'/organization/organization/phone_number./common/phone_number/service_location'
p1238
sI1235
S'/base/ecology/ecosystem/ecosystem_members'
p1239
sI1236
S'/sports/pro_athlete/teams./soccer/football_roster_position/team'
p1240
sI1237
S'/tv/tv_series_episode/guest_personal_appearances./tv/tv_guest_personal_appearance/person'
p1241
sI1238
S'/cvg/computer_videogame/gameplay_modes'
p1242
sI1239
S'/celebrities/sexual_orientation/celebrities./celebrities/sexual_orientation_phase/celebrity'
p1243
sI1240
S'/computer/programming_language/parent_language'
p1244
sI1241
S'/film/editor/film'
p1245
sI1242
S'/travel/travel_destination/local_transportation'
p1246
sI1243
S'/tv/tv_producer_type/tv_producers_of_this_type./tv/tv_producer_term/program'
p1247
sI1244
S'/dining/cuisine/restaurant'
p1248
sI1245
S'/sports/sport_country/athletic_performances./sports/competitor_competition_relationship/competitors'
p1249
sI1246
S'/soccer/football_team/manager./soccer/football_team_management_tenure/manager'
p1250
sI1247
S'/aviation/aircraft_model/aircraft_type'
p1251
sI1248
S'/food/ingredient/incompatible_with_dietary_restrictions'
p1252
sI1249
S'/film/film_distribution_medium/films_distributed_in_this_medium./film/film_film_distributor_relationship/film'
p1253
sI1250
S'/aviation/airline/alliance'
p1254
sI1251
S'/organization/role/leaders./organization/leadership/organization'
p1255
sI1252
S'/film/film/story_by'
p1256
sI1253
S'/organization/organization/involved_in_merger./organization/organization_merger/organizations_merging'
p1257
sI1254
S'/sports/pro_athlete/sports_played_professionally./sports/pro_sports_played/sport'
p1258
sI1255
S'/comic_books/comic_book_character/regular_featured_appearances'
p1259
sI1256
S'/award/award_ceremony/awards_presented./award/award_honor/award_winner'
p1260
sI1257
S'/comic_books/comic_book_character/created_by'
p1261
sI1258
S'/law/judge/courts./law/judicial_tenure/court'
p1262
sI1259
S'/media_common/netflix_genre/titles'
p1263
sI1260
S'/business/board_member/organization_board_memberships./organization/organization_board_membership/role'
p1264
sI1261
S'/sports/professional_sports_team/draft_picks./sports/sports_league_draft_pick/school'
p1265
sI1262
S'/american_football/football_player/current_team./american_football/football_roster_position/team'
p1266
sI1263
S'/baseball/baseball_player/current_team./baseball/baseball_roster_position/position'
p1267
sI1264
S'/geography/lake/lake_type'
p1268
sI1265
S'/royalty/noble_title/noble_rank'
p1269
sI1266
S'/government/legislative_session/members./government/government_position_held/district_represented'
p1270
sI1267
S'/military/military_combatant/force_deployments./military/force_strength/combatant'
p1271
sI1268
S'/film/film/runtime./film/film_cut/film_release_region'
p1272
sI1269
S'/base/eating/diets/people_who_follow_this_diet'
p1273
sI1270
S'/ice_hockey/hockey_team/current_roster./ice_hockey/hockey_roster_position/player'
p1274
sI1271
S'/business/business_operation/net_profit./measurement_unit/dated_money_value/currency'
p1275
sI1272
S'/common/topic/subjects'
p1276
sI1273
S'/user/mt/default_domain/metabolite/biofluid_location'
p1277
sI1274
S'/basketball/basketball_position/player_roster_position./basketball/basketball_roster_position/player'
p1278
sI1275
S'/fictional_universe/fictional_character/married_to./fictional_universe/marriage_of_fictional_characters/spouses'
p1279
sI1276
S'/cvg/computer_videogame/subjects'
p1280
sI1277
S'/award/competition/instance_of_recurring_competition'
p1281
sI1278
S'/music/album/artist'
p1282
sI1279
S'/user/robert/us_congress/congressional_caucus/current_house_members'
p1283
sI1280
S'/book/written_work/author'
p1284
sI1281
S'/tv/tv_program/subjects'
p1285
sI1282
S'/ice_hockey/hockey_position/players'
p1286
sI1283
S'/base/thoroughbredracing/thoroughbred_racehorse/country'
p1287
sI1284
S'/travel/travel_destination/climate./travel/travel_destination_monthly_climate/month'
p1288
sI1285
S'/business/business_operation/retained_earnings./measurement_unit/dated_money_value/currency'
p1289
sI1286
S'/architecture/structure/architectural_style'
p1290
sI1287
S'/food/ingredient/cuisine'
p1291
sI1288
S'/film/film/personal_appearances./film/personal_film_appearance/type_of_appearance'
p1292
sI1289
S'/award/award_nominated_work/award_nominations./award/award_nomination/award_nominee'
p1293
sI1290
S'/tv/tv_location/tv_shows_filmed_here'
p1294
sI1291
S'/film/writer/film'
p1295
sI1292
S'/location/statistical_region/gni_per_capita_in_ppp_dollars./measurement_unit/dated_money_value/currency'
p1296
sI1293
S'/sports/sports_position/players./basketball/basketball_roster_position/player'
p1297
sI1294
S'/geography/island_group/islands_in_group'
p1298
sI1295
S'/user/hangy/default_domain/sports_team_gender/gender'
p1299
sI1296
S'/american_football/football_player/receiving./american_football/player_receiving_statistics/team'
p1300
sI1297
S'/olympics/olympic_games/medals_awarded./olympics/olympic_medal_honor/medal'
p1301
sI1298
S'/aviation/aircraft_manufacturer/aircraft_models_made'
p1302
sI1299
S'/cvg/computer_videogame/developer'
p1303
sI1300
S'/aviation/airport/focus_city_for'
p1304
sI1301
S'/base/newsevents/news_reporting_organisation/news_reports./base/newsevents/news_report/event'
p1305
sI1302
S'/ice_hockey/hockey_team/current_roster./ice_hockey/hockey_roster_position/position'
p1306
sI1303
S'/organization/organization/board_members./organization/organization_board_membership/member'
p1307
sI1304
S'/royalty/royal_line/monarchs_from_this_line'
p1308
sI1305
S'/base/petbreeds/dog_breed/color'
p1309
sI1306
S'/chemistry/chemical_compound/solubility./chemistry/solubility_relationship/solvent'
p1310
sI1307
S'/sports/professional_sports_team/owner_s'
p1311
sI1308
S'/fictional_universe/fictional_character/employers./fictional_universe/fictional_employment_tenure/title'
p1312
sI1309
S'/broadcast/producer/produces'
p1313
sI1310
S'/business/business_operation/liabilities./measurement_unit/dated_money_value/currency'
p1314
sI1311
S'/organization/non_profit_organization/registered_with./organization/non_profit_registration/registering_agency'
p1315
sI1312
S'/tv/tv_program/regular_cast./tv/regular_tv_appearance/special_performance_type'
p1316
sI1313
S'/architecture/museum/address./location/mailing_address/state_province_region'
p1317
sI1314
S'/business/business_operation/current_assets./measurement_unit/dated_money_value/currency'
p1318
sI1315
S'/royalty/chivalric_order_member/belongs_to_order./royalty/chivalric_order_membership/order'
p1319
sI1316
S'/soccer/football_player/matches_played./soccer/football_player_match_participation/team'
p1320
sI1317
S'/film/film_character/portrayed_in_films_dubbed./film/dubbing_performance/actor'
p1321
sI1318
S'/royalty/monarch/kingdom'
p1322
sI1319
S'/user/robert/us_congress/us_representative/state'
p1323
sI1320
S'/government/governmental_body/members./government/government_position_held/office_position_or_title'
p1324
sI1321
S'/travel/tourist_attraction/near_travel_destination'
p1325
sI1322
S'/user/lindenb/default_domain/scientist/known_for'
p1326
sI1323
S'/baseball/baseball_player/lifetime_batting_statistics./baseball/lifetime_batting_statistics/ending_season'
p1327
sI1324
S'/user/radiusrs/default_domain/astrology/related_topics'
p1328
sI1325
S'/sports/sports_team/roster./baseball/baseball_roster_position/position'
p1329
sI1326
S'/olympics/olympic_games/athletes./olympics/olympic_athlete_affiliation/country'
p1330
sI1327
S'/education/fraternity_sorority/founded_location'
p1331
sI1328
S'/cvg/cvg_genre/games'
p1332
sI1329
S'/sports/pro_athlete/teams./baseball/baseball_historical_roster_position/team'
p1333
sI1330
S'/film/film/release_date_s./film/film_regional_release_date/film_release_distribution_medium'
p1334
sI1331
S'/base/crime/convicted_criminal/convictions./base/crime/criminal_conviction/guilty_of'
p1335
sI1332
S'/venture_capital/venture_investor/investments./venture_capital/venture_investment/company'
p1336
sI1333
S'/user/robert/us_congress/congressional_district/state'
p1337
sI1334
S'/travel/travel_destination/how_to_get_here./travel/transportation/transport_terminus'
p1338
sI1335
S'/education/academic/advisors'
p1339
sI1336
S'/time/event/included_in_event'
p1340
sI1337
S'/people/appointee/position./people/appointment/appointed_role'
p1341
sI1338
S'/basketball/basketball_position/player_roster_position./sports/sports_team_roster/player'
p1342
sI1339
S'/people/ethnicity/includes_groups'
p1343
sI1340
S'/base/contractbridge/bridge_tournament/standing./base/contractbridge/bridge_tournament_standings/second_place'
p1344
ssS'r2i'
p1345
(dp1346
g1136
I1132
sg4
I0
sg5
I1
sg6
I2
sg7
I3
sg8
I4
sg994
I990
sg9
I5
sg1179
I1175
sg1332
I1328
sg10
I6
sg878
I874
sg11
I7
sg879
I875
sg14
I10
sg16
I12
sg17
I13
sg653
I649
sg19
I15
sg20
I16
sg21
I17
sg23
I19
sg24
I20
sg25
I21
sg26
I22
sg27
I23
sg28
I24
sg29
I25
sg30
I26
sg31
I27
sg32
I28
sg33
I29
sg34
I30
sg35
I31
sg36
I32
sg37
I33
sg1312
I1308
sg903
I899
sg38
I34
sg39
I35
sg770
I766
sg40
I36
sg41
I37
sg42
I38
sg43
I39
sg44
I40
sg45
I41
sg46
I42
sg47
I43
sg256
I252
sg49
I45
sg1331
I1327
sg50
I46
sg52
I48
sg53
I49
sg54
I50
sg433
I429
sg652
I648
sg57
I53
sg58
I54
sg332
I328
sg60
I56
sg62
I58
sg64
I60
sg66
I62
sg67
I63
sg68
I64
sg767
I763
sg70
I66
sg71
I67
sg72
I68
sg73
I69
sg75
I71
sg77
I73
sg1016
I1012
sg79
I75
sg80
I76
sg81
I77
sg82
I78
sg83
I79
sg665
I661
sg86
I82
sg87
I83
sg88
I84
sg89
I85
sg497
I493
sg91
I87
sg1053
I1049
sg93
I89
sg1106
I1102
sg95
I91
sg658
I654
sg97
I93
sg98
I94
sg99
I95
sg100
I96
sg101
I97
sg102
I98
sg435
I431
sg1335
I1331
sg104
I100
sg105
I101
sg106
I102
sg952
I948
sg1176
I1172
sg107
I103
sg108
I104
sg109
I105
sg110
I106
sg718
I714
sg111
I107
sg1094
I1090
sg112
I108
sg113
I109
sg114
I110
sg115
I111
sg116
I112
sg117
I113
sg118
I114
sg119
I115
sg120
I116
sg121
I117
sg122
I118
sg123
I119
sg124
I120
sg125
I121
sg126
I122
sg127
I123
sg129
I125
sg130
I126
sg131
I127
sg132
I128
sg134
I130
sg135
I131
sg136
I132
sg137
I133
sg229
I225
sg139
I135
sg140
I136
sg141
I137
sg735
I731
sg142
I138
sg1126
I1122
sg144
I140
sg902
I898
sg146
I142
sg302
I298
sg148
I144
sg149
I145
sg150
I146
sg151
I147
sg152
I148
sg154
I150
sg155
I151
sg156
I152
sg1044
I1040
sg157
I153
sg449
I445
sg159
I155
sg160
I156
sg161
I157
sg162
I158
sg163
I159
sg164
I160
sg165
I161
sg166
I162
sg167
I163
sg169
I165
sg170
I166
sg171
I167
sg173
I169
sg174
I170
sg175
I171
sg176
I172
sg238
I234
sg178
I174
sg179
I175
sg1261
I1257
sg180
I176
sg181
I177
sg182
I178
sg183
I179
sg336
I332
sg187
I183
sg454
I450
sg190
I186
sg191
I187
sg193
I189
sg194
I190
sg1288
I1284
sg254
I250
sg196
I192
sg975
I971
sg197
I193
sg198
I194
sg199
I195
sg914
I910
sg1085
I1081
sg203
I199
sg915
I911
sg204
I200
sg1275
I1271
sg205
I201
sg206
I202
sg679
I675
sg210
I206
sg211
I207
sg213
I209
sg215
I211
sg216
I212
sg217
I213
sg220
I216
sg222
I218
sg843
I839
sg224
I220
sg919
I915
sg226
I222
sg227
I223
sg228
I224
sg138
I134
sg230
I226
sg231
I227
sg232
I228
sg233
I229
sg234
I230
sg235
I231
sg236
I232
sg237
I233
sg177
I173
sg239
I235
sg240
I236
sg241
I237
sg243
I239
sg244
I240
sg245
I241
sg246
I242
sg247
I243
sg248
I244
sg249
I245
sg250
I246
sg251
I247
sg1251
I1247
sg253
I249
sg1148
I1144
sg255
I251
sg897
I893
sg257
I253
sg258
I254
sg925
I921
sg261
I257
sg262
I258
sg263
I259
sg264
I260
sg265
I261
sg266
I262
sg267
I263
sg268
I264
sg269
I265
sg270
I266
sg272
I268
sg274
I270
sg1111
I1107
sg275
I271
sg277
I273
sg278
I274
sg279
I275
sg280
I276
sg281
I277
sg282
I278
sg283
I279
sg284
I280
sg285
I281
sg286
I282
sg287
I283
sg906
I902
sg947
I943
sg667
I663
sg289
I285
sg290
I286
sg291
I287
sg292
I288
sg294
I290
sg296
I292
sg297
I293
sg298
I294
sg299
I295
sg300
I296
sg301
I297
sg1155
I1151
sg303
I299
sg304
I300
sg629
I625
sg305
I301
sg306
I302
sg479
I475
sg308
I304
sg309
I305
sg310
I306
sg311
I307
sg312
I308
sg313
I309
sg314
I310
sg315
I311
sg316
I312
sg702
I698
sg1342
I1338
sg318
I314
sg937
I933
sg320
I316
sg703
I699
sg1132
I1128
sg322
I318
sg323
I319
sg1256
I1252
sg324
I320
sg326
I322
sg327
I323
sg328
I324
sg329
I325
sg330
I326
sg331
I327
sg59
I55
sg333
I329
sg334
I330
sg977
I973
sg699
I695
sg337
I333
sg338
I334
sg939
I935
sg340
I336
sg341
I337
sg342
I338
sg940
I936
sg344
I340
sg345
I341
sg346
I342
sg347
I343
sg348
I344
sg349
I345
sg350
I346
sg707
I703
sg801
I797
sg352
I348
sg353
I349
sg354
I350
sg355
I351
sg356
I352
sg802
I798
sg358
I354
sg359
I355
sg360
I356
sg361
I357
sg363
I359
sg711
I707
sg365
I361
sg366
I362
sg78
I74
sg368
I364
sg1234
I1230
sg371
I367
sg967
I963
sg372
I368
sg373
I369
sg271
I267
sg375
I371
sg376
I372
sg377
I373
sg378
I374
sg379
I375
sg380
I376
sg381
I377
sg714
I710
sg1174
I1170
sg384
I380
sg385
I381
sg386
I382
sg387
I383
sg388
I384
sg389
I385
sg390
I386
sg391
I387
sg392
I388
sg393
I389
sg394
I390
sg395
I391
sg716
I712
sg545
I541
sg397
I393
sg398
I394
sg399
I395
sg400
I396
sg494
I490
sg402
I398
sg403
I399
sg404
I400
sg405
I401
sg406
I402
sg407
I403
sg408
I404
sg412
I408
sg410
I406
sg411
I407
sg1048
I1044
sg413
I409
sg414
I410
sg416
I412
sg417
I413
sg420
I416
sg421
I417
sg422
I418
sg964
I960
sg423
I419
sg424
I420
sg425
I421
sg426
I422
sg852
I848
sg429
I425
sg430
I426
sg48
I44
sg432
I428
sg55
I51
sg501
I497
sg437
I433
sg1323
I1319
sg438
I434
sg439
I435
sg440
I436
sg441
I437
sg954
I950
sg443
I439
sg723
I719
sg445
I441
sg965
I961
sg447
I443
sg448
I444
sg158
I154
sg450
I446
sg451
I447
sg452
I448
sg188
I184
sg455
I451
sg456
I452
sg505
I501
sg458
I454
sg459
I455
sg460
I456
sg461
I457
sg462
I458
sg463
I459
sg958
I954
sg980
I976
sg465
I461
sg507
I503
sg959
I955
sg468
I464
sg469
I465
sg470
I466
sg1189
I1185
sg998
I994
sg472
I468
sg473
I469
sg509
I505
sg729
I725
sg477
I473
sg478
I474
sg307
I303
sg480
I476
sg481
I477
sg1279
I1275
sg482
I478
sg483
I479
sg223
I219
sg1273
I1269
sg486
I482
sg583
I579
sg488
I484
sg511
I507
sg490
I486
sg492
I488
sg1192
I1188
sg401
I397
sg495
I491
sg409
I405
sg1114
I1110
sg498
I494
sg499
I495
sg500
I496
sg434
I430
sg502
I498
sg503
I499
sg504
I500
sg457
I453
sg506
I502
sg466
I462
sg508
I504
sg474
I470
sg736
I732
sg489
I485
sg512
I508
sg513
I509
sg514
I510
sg515
I511
sg516
I512
sg517
I513
sg518
I514
sg1226
I1222
sg519
I515
sg739
I735
sg521
I517
sg522
I518
sg523
I519
sg524
I520
sg525
I521
sg526
I522
sg818
I814
sg528
I524
sg993
I989
sg590
I586
sg530
I526
sg531
I527
sg532
I528
sg192
I188
sg534
I530
sg535
I531
sg536
I532
sg537
I533
sg538
I534
sg539
I535
sg908
I904
sg541
I537
sg542
I538
sg763
I759
sg544
I540
sg185
I181
sg1001
I997
sg546
I542
sg547
I543
sg548
I544
sg549
I545
sg1326
I1322
sg1321
I1317
sg1190
I1186
sg551
I547
sg552
I548
sg553
I549
sg555
I551
sg556
I552
sg558
I554
sg559
I555
sg560
I556
sg485
I481
sg562
I558
sg1207
I1203
sg564
I560
sg565
I561
sg566
I562
sg567
I563
sg568
I564
sg569
I565
sg201
I197
sg571
I567
sg572
I568
sg573
I569
sg1152
I1148
sg1082
I1078
sg574
I570
sg325
I321
sg576
I572
sg92
I88
sg578
I574
sg580
I576
sg581
I577
sg582
I578
sg584
I580
sg585
I581
sg586
I582
sg587
I583
sg588
I584
sg589
I585
sg591
I587
sg750
I746
sg594
I590
sg595
I591
sg596
I592
sg597
I593
sg982
I978
sg598
I594
sg599
I595
sg1067
I1063
sg602
I598
sg603
I599
sg604
I600
sg605
I601
sg606
I602
sg607
I603
sg608
I604
sg609
I605
sg610
I606
sg611
I607
sg612
I608
sg613
I609
sg614
I610
sg1142
I1138
sg1247
I1243
sg616
I612
sg617
I613
sg618
I614
sg619
I615
sg620
I616
sg621
I617
sg622
I618
sg623
I619
sg624
I620
sg625
I621
sg627
I623
sg1292
I1288
sg628
I624
sg214
I210
sg630
I626
sg1212
I1208
sg631
I627
sg632
I628
sg634
I630
sg635
I631
sg636
I632
sg637
I633
sg638
I634
sg639
I635
sg640
I636
sg642
I638
sg643
I639
sg644
I640
sg645
I641
sg646
I642
sg1284
I1280
sg997
I993
sg648
I644
sg1263
I1259
sg649
I645
sg650
I646
sg651
I647
sg56
I52
sg577
I573
sg654
I650
sg1213
I1209
sg656
I652
sg657
I653
sg96
I92
sg103
I99
sg1151
I1147
sg660
I656
sg661
I657
sg662
I658
sg664
I660
sg1242
I1238
sg76
I72
sg666
I662
sg147
I143
sg669
I665
sg1221
I1217
sg671
I667
sg672
I668
sg944
I940
sg676
I672
sg766
I762
sg678
I674
sg207
I203
sg681
I677
sg682
I678
sg683
I679
sg684
I680
sg685
I681
sg686
I682
sg687
I683
sg688
I684
sg418
I414
sg691
I687
sg357
I353
sg769
I765
sg694
I690
sg695
I691
sg696
I692
sg697
I693
sg698
I694
sg293
I289
sg700
I696
sg701
I697
sg317
I313
sg321
I317
sg335
I331
sg706
I702
sg351
I347
sg708
I704
sg709
I705
sg710
I706
sg364
I360
sg712
I708
sg1231
I1227
sg713
I709
sg382
I378
sg1129
I1125
sg396
I392
sg1206
I1202
sg431
I427
sg719
I715
sg720
I716
sg721
I717
sg722
I718
sg674
I670
sg724
I720
sg725
I721
sg726
I722
sg727
I723
sg728
I724
sg476
I472
sg732
I728
sg733
I729
sg734
I730
sg84
I80
sg510
I506
sg65
I61
sg738
I734
sg520
I516
sg827
I823
sg740
I736
sg741
I737
sg742
I738
sg743
I739
sg744
I740
sg745
I741
sg746
I742
sg748
I744
sg749
I745
sg592
I588
sg751
I747
sg752
I748
sg1050
I1046
sg1015
I1011
sg145
I141
sg756
I752
sg757
I753
sg781
I777
sg759
I755
sg760
I756
sg761
I757
sg762
I758
sg444
I440
sg764
I760
sg765
I761
sg677
I673
sg768
I764
sg693
I689
sg557
I553
sg969
I965
sg772
I768
sg773
I769
sg775
I771
sg776
I772
sg1243
I1239
sg778
I774
sg779
I775
sg758
I754
sg782
I778
sg783
I779
sg784
I780
sg785
I781
sg1320
I1316
sg786
I782
sg787
I783
sg788
I784
sg789
I785
sg790
I786
sg791
I787
sg202
I198
sg792
I788
sg793
I789
sg794
I790
sg795
I791
sg796
I792
sg797
I793
sg798
I794
sg799
I795
sg1054
I1050
sg800
I796
sg184
I180
sg446
I442
sg803
I799
sg804
I800
sg805
I801
sg754
I750
sg807
I803
sg808
I804
sg809
I805
sg810
I806
sg811
I807
sg812
I808
sg51
I47
sg814
I810
sg295
I291
sg816
I812
sg85
I81
sg561
I557
sg819
I815
sg820
I816
sg821
I817
sg822
I818
sg823
I819
sg824
I820
sg825
I821
sg777
I773
sg828
I824
sg829
I825
sg830
I826
sg831
I827
sg832
I828
sg833
I829
sg834
I830
sg835
I831
sg837
I833
sg838
I834
sg839
I835
sg840
I836
sg633
I629
sg842
I838
sg689
I685
sg844
I840
sg845
I841
sg846
I842
sg1027
I1023
sg848
I844
sg849
I845
sg771
I767
sg851
I847
sg853
I849
sg854
I850
sg855
I851
sg856
I852
sg857
I853
sg858
I854
sg859
I855
sg860
I856
sg861
I857
sg862
I858
sg863
I859
sg864
I860
sg865
I861
sg866
I862
sg867
I863
sg484
I480
sg868
I864
sg869
I865
sg570
I566
sg871
I867
sg872
I868
sg873
I869
sg923
I919
sg874
I870
sg875
I871
sg876
I872
sg877
I873
sg705
I701
sg12
I8
sg18
I14
sg881
I877
sg882
I878
sg1260
I1256
sg883
I879
sg884
I880
sg885
I881
sg886
I882
sg888
I884
sg889
I885
sg890
I886
sg891
I887
sg987
I983
sg892
I888
sg893
I889
sg894
I890
sg895
I891
sg896
I892
sg717
I713
sg899
I895
sg900
I896
sg63
I59
sg453
I449
sg273
I269
sg905
I901
sg168
I164
sg907
I903
sg208
I204
sg1220
I1216
sg910
I906
sg911
I907
sg912
I908
sg753
I749
sg200
I196
sg575
I571
sg916
I912
sg917
I913
sg1276
I1272
sg918
I914
sg225
I221
sg1287
I1283
sg920
I916
sg921
I917
sg922
I918
sg252
I248
sg924
I920
sg260
I256
sg926
I922
sg927
I923
sg928
I924
sg929
I925
sg930
I926
sg931
I927
sg988
I984
sg934
I930
sg935
I931
sg936
I932
sg898
I894
sg319
I315
sg938
I934
sg339
I335
sg343
I339
sg941
I937
sg942
I938
sg943
I939
sg1164
I1160
sg945
I941
sg1244
I1240
sg1222
I1218
sg946
I942
sg221
I217
sg948
I944
sg949
I945
sg950
I946
sg951
I947
sg427
I423
sg953
I949
sg442
I438
sg955
I951
sg956
I952
sg957
I953
sg464
I460
sg467
I463
sg1272
I1268
sg962
I958
sg963
I959
sg487
I483
sg491
I487
sg966
I962
sg540
I536
sg968
I964
sg817
I813
sg1264
I1260
sg212
I208
sg971
I967
sg972
I968
sg529
I525
sg974
I970
sg901
I897
sg976
I972
sg22
I18
sg978
I974
sg276
I272
sg981
I977
sg219
I215
sg983
I979
sg961
I957
sg985
I981
sg1173
I1169
sg986
I982
sg601
I597
sg655
I651
sg989
I985
sg970
I966
sg991
I987
sg626
I622
sg979
I975
sg668
I664
sg995
I991
sg996
I992
sg647
I643
sg428
I424
sg999
I995
sg1316
I1312
sg1000
I996
sg675
I671
sg1002
I998
sg1003
I999
sg1004
I1000
sg1005
I1001
sg1006
I1002
sg1007
I1003
sg367
I363
sg1009
I1005
sg1010
I1006
sg1011
I1007
sg992
I988
sg1012
I1008
sg1013
I1009
sg1014
I1010
sg615
I611
sg415
I411
sg1017
I1013
sg1018
I1014
sg1019
I1015
sg362
I358
sg1034
I1030
sg1022
I1018
sg1333
I1329
sg1023
I1019
sg1283
I1279
sg1025
I1021
sg1026
I1022
sg973
I969
sg1028
I1024
sg1029
I1025
sg1030
I1026
sg1031
I1027
sg1032
I1028
sg1033
I1029
sg133
I129
sg1035
I1031
sg1036
I1032
sg1037
I1033
sg1038
I1034
sg1039
I1035
sg1040
I1036
sg774
I770
sg1042
I1038
sg1043
I1039
sg374
I370
sg1045
I1041
sg1250
I1246
sg1046
I1042
sg1047
I1043
sg13
I9
sg1049
I1045
sg990
I986
sg1051
I1047
sg1241
I1237
sg1052
I1048
sg242
I238
sg826
I822
sg1055
I1051
sg1056
I1052
sg1057
I1053
sg1204
I1200
sg1058
I1054
sg1059
I1055
sg1134
I1130
sg1060
I1056
sg1061
I1057
sg1062
I1058
sg755
I751
sg1064
I1060
sg1065
I1061
sg659
I655
sg1066
I1062
sg1068
I1064
sg1069
I1065
sg1070
I1066
sg1071
I1067
sg1072
I1068
sg1073
I1069
sg1074
I1070
sg1075
I1071
sg1076
I1072
sg1077
I1073
sg1078
I1074
sg1079
I1075
sg1080
I1076
sg1020
I1016
sg1297
I1293
sg15
I11
sg680
I676
sg1086
I1082
sg1087
I1083
sg1090
I1086
sg1091
I1087
sg1092
I1088
sg1093
I1089
sg1063
I1059
sg1095
I1091
sg1096
I1092
sg1097
I1093
sg1098
I1094
sg1281
I1277
sg1099
I1095
sg1100
I1096
sg1101
I1097
sg419
I415
sg1103
I1099
sg933
I929
sg1105
I1101
sg370
I366
sg1187
I1183
sg841
I837
sg806
I802
sg1110
I1106
sg69
I65
sg1112
I1108
sg1229
I1225
sg1113
I1109
sg90
I86
sg1115
I1111
sg1116
I1112
sg1117
I1113
sg1118
I1114
sg1119
I1115
sg1120
I1116
sg1121
I1117
sg1122
I1118
sg1123
I1119
sg1124
I1120
sg1125
I1121
sg1339
I1335
sg143
I139
sg1127
I1123
sg1128
I1124
sg593
I589
sg1130
I1126
sg1258
I1254
sg1131
I1127
sg692
I688
sg1133
I1129
sg94
I90
sg1135
I1131
sg195
I191
sg1137
I1133
sg1138
I1134
sg1139
I1135
sg1140
I1136
sg1141
I1137
sg218
I214
sg1143
I1139
sg1236
I1232
sg1144
I1140
sg186
I182
sg1146
I1142
sg1306
I1302
sg533
I529
sg1149
I1145
sg1150
I1146
sg1088
I1084
sg189
I185
sg1153
I1149
sg1154
I1150
sg153
I149
sg1108
I1104
sg1157
I1153
sg1158
I1154
sg1159
I1155
sg1160
I1156
sg1162
I1158
sg1163
I1159
sg850
I846
sg1165
I1161
sg1310
I1306
sg1167
I1163
sg1168
I1164
sg1170
I1166
sg1171
I1167
sg1172
I1168
sg815
I811
sg1107
I1103
sg369
I365
sg1175
I1171
sg172
I168
sg1177
I1173
sg527
I523
sg436
I432
sg1180
I1176
sg1181
I1177
sg1182
I1178
sg1183
I1179
sg1184
I1180
sg1185
I1181
sg1186
I1182
sg74
I70
sg1188
I1184
sg471
I467
sg1156
I1152
sg1191
I1187
sg493
I489
sg731
I727
sg579
I575
sg1083
I1079
sg1196
I1192
sg1197
I1193
sg1198
I1194
sg1199
I1195
sg1200
I1196
sg1201
I1197
sg1202
I1198
sg1203
I1199
sg543
I539
sg880
I876
sg1205
I1201
sg1194
I1190
sg913
I909
sg1208
I1204
sg1209
I1205
sg1210
I1206
sg1211
I1207
sg1193
I1189
sg600
I596
sg1267
I1263
sg1214
I1210
sg1215
I1211
sg1216
I1212
sg1217
I1213
sg1218
I1214
sg909
I905
sg670
I666
sg932
I928
sg1223
I1219
sg1224
I1220
sg1225
I1221
sg1084
I1080
sg1227
I1223
sg1228
I1224
sg704
I700
sg1230
I1226
sg813
I809
sg1232
I1228
sg1233
I1229
sg1235
I1231
sg128
I124
sg1237
I1233
sg496
I492
sg1238
I1234
sg550
I546
sg554
I550
sg780
I776
sg383
I379
sg641
I637
sg1245
I1241
sg1246
I1242
sg690
I686
sg1249
I1245
sg288
I284
sg1252
I1248
sg1253
I1249
sg1178
I1174
sg1255
I1251
sg1145
I1141
sg1257
I1253
sg887
I883
sg1259
I1255
sg1254
I1250
sg730
I726
sg1262
I1258
sg904
I900
sg663
I659
sg737
I733
sg1266
I1262
sg1081
I1077
sg1268
I1264
sg1307
I1303
sg1269
I1265
sg1270
I1266
sg1271
I1267
sg960
I956
sg1240
I1236
sg1161
I1157
sg1274
I1270
sg836
I832
sg209
I205
sg1277
I1273
sg1340
I1336
sg1278
I1274
sg1109
I1105
sg1280
I1276
sg563
I559
sg1282
I1278
sg1024
I1020
sg847
I843
sg1285
I1281
sg1286
I1282
sg870
I866
sg1248
I1244
sg1289
I1285
sg1290
I1286
sg1291
I1287
sg1021
I1017
sg1293
I1289
sg1294
I1290
sg1295
I1291
sg1296
I1292
sg1008
I1004
sg1298
I1294
sg1299
I1295
sg1300
I1296
sg1301
I1297
sg1302
I1298
sg1303
I1299
sg1265
I1261
sg1327
I1323
sg1304
I1300
sg1305
I1301
sg1147
I1143
sg984
I980
sg1308
I1304
sg1309
I1305
sg1166
I1162
sg1311
I1307
sg1041
I1037
sg1313
I1309
sg1314
I1310
sg1315
I1311
sg747
I743
sg1317
I1313
sg1318
I1314
sg1319
I1315
sg1219
I1215
sg1089
I1085
sg1322
I1318
sg1239
I1235
sg1324
I1320
sg1325
I1321
sg1102
I1098
sg673
I669
sg1328
I1324
sg1329
I1325
sg1330
I1326
sg715
I711
sg475
I471
sg1195
I1191
sg1334
I1330
sg61
I57
sg1336
I1332
sg1337
I1333
sg1338
I1334
sg259
I255
sg1169
I1165
sg1341
I1337
sg1104
I1100
sg1343
I1339
sg1344
I1340
ss.